
rtarget:     file format elf64-x86-64


Disassembly of section .init:

0000000000401000 <_init>:
  401000:	f3 0f 1e fa          	endbr64 
  401004:	48 83 ec 08          	sub    $0x8,%rsp
  401008:	48 8b 05 e1 4f 00 00 	mov    0x4fe1(%rip),%rax        # 405ff0 <__gmon_start__>
  40100f:	48 85 c0             	test   %rax,%rax
  401012:	74 02                	je     401016 <_init+0x16>
  401014:	ff d0                	callq  *%rax
  401016:	48 83 c4 08          	add    $0x8,%rsp
  40101a:	c3                   	retq   

Disassembly of section .plt:

0000000000401020 <.plt>:
  401020:	ff 35 e2 4f 00 00    	pushq  0x4fe2(%rip)        # 406008 <_GLOBAL_OFFSET_TABLE_+0x8>
  401026:	f2 ff 25 e3 4f 00 00 	bnd jmpq *0x4fe3(%rip)        # 406010 <_GLOBAL_OFFSET_TABLE_+0x10>
  40102d:	0f 1f 00             	nopl   (%rax)
  401030:	f3 0f 1e fa          	endbr64 
  401034:	68 00 00 00 00       	pushq  $0x0
  401039:	f2 e9 e1 ff ff ff    	bnd jmpq 401020 <.plt>
  40103f:	90                   	nop
  401040:	f3 0f 1e fa          	endbr64 
  401044:	68 01 00 00 00       	pushq  $0x1
  401049:	f2 e9 d1 ff ff ff    	bnd jmpq 401020 <.plt>
  40104f:	90                   	nop
  401050:	f3 0f 1e fa          	endbr64 
  401054:	68 02 00 00 00       	pushq  $0x2
  401059:	f2 e9 c1 ff ff ff    	bnd jmpq 401020 <.plt>
  40105f:	90                   	nop
  401060:	f3 0f 1e fa          	endbr64 
  401064:	68 03 00 00 00       	pushq  $0x3
  401069:	f2 e9 b1 ff ff ff    	bnd jmpq 401020 <.plt>
  40106f:	90                   	nop
  401070:	f3 0f 1e fa          	endbr64 
  401074:	68 04 00 00 00       	pushq  $0x4
  401079:	f2 e9 a1 ff ff ff    	bnd jmpq 401020 <.plt>
  40107f:	90                   	nop
  401080:	f3 0f 1e fa          	endbr64 
  401084:	68 05 00 00 00       	pushq  $0x5
  401089:	f2 e9 91 ff ff ff    	bnd jmpq 401020 <.plt>
  40108f:	90                   	nop
  401090:	f3 0f 1e fa          	endbr64 
  401094:	68 06 00 00 00       	pushq  $0x6
  401099:	f2 e9 81 ff ff ff    	bnd jmpq 401020 <.plt>
  40109f:	90                   	nop
  4010a0:	f3 0f 1e fa          	endbr64 
  4010a4:	68 07 00 00 00       	pushq  $0x7
  4010a9:	f2 e9 71 ff ff ff    	bnd jmpq 401020 <.plt>
  4010af:	90                   	nop
  4010b0:	f3 0f 1e fa          	endbr64 
  4010b4:	68 08 00 00 00       	pushq  $0x8
  4010b9:	f2 e9 61 ff ff ff    	bnd jmpq 401020 <.plt>
  4010bf:	90                   	nop
  4010c0:	f3 0f 1e fa          	endbr64 
  4010c4:	68 09 00 00 00       	pushq  $0x9
  4010c9:	f2 e9 51 ff ff ff    	bnd jmpq 401020 <.plt>
  4010cf:	90                   	nop
  4010d0:	f3 0f 1e fa          	endbr64 
  4010d4:	68 0a 00 00 00       	pushq  $0xa
  4010d9:	f2 e9 41 ff ff ff    	bnd jmpq 401020 <.plt>
  4010df:	90                   	nop
  4010e0:	f3 0f 1e fa          	endbr64 
  4010e4:	68 0b 00 00 00       	pushq  $0xb
  4010e9:	f2 e9 31 ff ff ff    	bnd jmpq 401020 <.plt>
  4010ef:	90                   	nop
  4010f0:	f3 0f 1e fa          	endbr64 
  4010f4:	68 0c 00 00 00       	pushq  $0xc
  4010f9:	f2 e9 21 ff ff ff    	bnd jmpq 401020 <.plt>
  4010ff:	90                   	nop
  401100:	f3 0f 1e fa          	endbr64 
  401104:	68 0d 00 00 00       	pushq  $0xd
  401109:	f2 e9 11 ff ff ff    	bnd jmpq 401020 <.plt>
  40110f:	90                   	nop
  401110:	f3 0f 1e fa          	endbr64 
  401114:	68 0e 00 00 00       	pushq  $0xe
  401119:	f2 e9 01 ff ff ff    	bnd jmpq 401020 <.plt>
  40111f:	90                   	nop
  401120:	f3 0f 1e fa          	endbr64 
  401124:	68 0f 00 00 00       	pushq  $0xf
  401129:	f2 e9 f1 fe ff ff    	bnd jmpq 401020 <.plt>
  40112f:	90                   	nop
  401130:	f3 0f 1e fa          	endbr64 
  401134:	68 10 00 00 00       	pushq  $0x10
  401139:	f2 e9 e1 fe ff ff    	bnd jmpq 401020 <.plt>
  40113f:	90                   	nop
  401140:	f3 0f 1e fa          	endbr64 
  401144:	68 11 00 00 00       	pushq  $0x11
  401149:	f2 e9 d1 fe ff ff    	bnd jmpq 401020 <.plt>
  40114f:	90                   	nop
  401150:	f3 0f 1e fa          	endbr64 
  401154:	68 12 00 00 00       	pushq  $0x12
  401159:	f2 e9 c1 fe ff ff    	bnd jmpq 401020 <.plt>
  40115f:	90                   	nop
  401160:	f3 0f 1e fa          	endbr64 
  401164:	68 13 00 00 00       	pushq  $0x13
  401169:	f2 e9 b1 fe ff ff    	bnd jmpq 401020 <.plt>
  40116f:	90                   	nop
  401170:	f3 0f 1e fa          	endbr64 
  401174:	68 14 00 00 00       	pushq  $0x14
  401179:	f2 e9 a1 fe ff ff    	bnd jmpq 401020 <.plt>
  40117f:	90                   	nop
  401180:	f3 0f 1e fa          	endbr64 
  401184:	68 15 00 00 00       	pushq  $0x15
  401189:	f2 e9 91 fe ff ff    	bnd jmpq 401020 <.plt>
  40118f:	90                   	nop
  401190:	f3 0f 1e fa          	endbr64 
  401194:	68 16 00 00 00       	pushq  $0x16
  401199:	f2 e9 81 fe ff ff    	bnd jmpq 401020 <.plt>
  40119f:	90                   	nop
  4011a0:	f3 0f 1e fa          	endbr64 
  4011a4:	68 17 00 00 00       	pushq  $0x17
  4011a9:	f2 e9 71 fe ff ff    	bnd jmpq 401020 <.plt>
  4011af:	90                   	nop
  4011b0:	f3 0f 1e fa          	endbr64 
  4011b4:	68 18 00 00 00       	pushq  $0x18
  4011b9:	f2 e9 61 fe ff ff    	bnd jmpq 401020 <.plt>
  4011bf:	90                   	nop
  4011c0:	f3 0f 1e fa          	endbr64 
  4011c4:	68 19 00 00 00       	pushq  $0x19
  4011c9:	f2 e9 51 fe ff ff    	bnd jmpq 401020 <.plt>
  4011cf:	90                   	nop
  4011d0:	f3 0f 1e fa          	endbr64 
  4011d4:	68 1a 00 00 00       	pushq  $0x1a
  4011d9:	f2 e9 41 fe ff ff    	bnd jmpq 401020 <.plt>
  4011df:	90                   	nop
  4011e0:	f3 0f 1e fa          	endbr64 
  4011e4:	68 1b 00 00 00       	pushq  $0x1b
  4011e9:	f2 e9 31 fe ff ff    	bnd jmpq 401020 <.plt>
  4011ef:	90                   	nop
  4011f0:	f3 0f 1e fa          	endbr64 
  4011f4:	68 1c 00 00 00       	pushq  $0x1c
  4011f9:	f2 e9 21 fe ff ff    	bnd jmpq 401020 <.plt>
  4011ff:	90                   	nop
  401200:	f3 0f 1e fa          	endbr64 
  401204:	68 1d 00 00 00       	pushq  $0x1d
  401209:	f2 e9 11 fe ff ff    	bnd jmpq 401020 <.plt>
  40120f:	90                   	nop
  401210:	f3 0f 1e fa          	endbr64 
  401214:	68 1e 00 00 00       	pushq  $0x1e
  401219:	f2 e9 01 fe ff ff    	bnd jmpq 401020 <.plt>
  40121f:	90                   	nop
  401220:	f3 0f 1e fa          	endbr64 
  401224:	68 1f 00 00 00       	pushq  $0x1f
  401229:	f2 e9 f1 fd ff ff    	bnd jmpq 401020 <.plt>
  40122f:	90                   	nop
  401230:	f3 0f 1e fa          	endbr64 
  401234:	68 20 00 00 00       	pushq  $0x20
  401239:	f2 e9 e1 fd ff ff    	bnd jmpq 401020 <.plt>
  40123f:	90                   	nop
  401240:	f3 0f 1e fa          	endbr64 
  401244:	68 21 00 00 00       	pushq  $0x21
  401249:	f2 e9 d1 fd ff ff    	bnd jmpq 401020 <.plt>
  40124f:	90                   	nop

Disassembly of section .plt.sec:

0000000000401250 <curl_free@plt>:
  401250:	f3 0f 1e fa          	endbr64 
  401254:	f2 ff 25 bd 4d 00 00 	bnd jmpq *0x4dbd(%rip)        # 406018 <curl_free@CURL_OPENSSL_4>
  40125b:	0f 1f 44 00 00       	nopl   0x0(%rax,%rax,1)

0000000000401260 <memcpy@plt>:
  401260:	f3 0f 1e fa          	endbr64 
  401264:	f2 ff 25 b5 4d 00 00 	bnd jmpq *0x4db5(%rip)        # 406020 <memcpy@GLIBC_2.14>
  40126b:	0f 1f 44 00 00       	nopl   0x0(%rax,%rax,1)

0000000000401270 <realloc@plt>:
  401270:	f3 0f 1e fa          	endbr64 
  401274:	f2 ff 25 ad 4d 00 00 	bnd jmpq *0x4dad(%rip)        # 406028 <realloc@GLIBC_2.2.5>
  40127b:	0f 1f 44 00 00       	nopl   0x0(%rax,%rax,1)

0000000000401280 <curl_easy_cleanup@plt>:
  401280:	f3 0f 1e fa          	endbr64 
  401284:	f2 ff 25 a5 4d 00 00 	bnd jmpq *0x4da5(%rip)        # 406030 <curl_easy_cleanup@CURL_OPENSSL_4>
  40128b:	0f 1f 44 00 00       	nopl   0x0(%rax,%rax,1)

0000000000401290 <free@plt>:
  401290:	f3 0f 1e fa          	endbr64 
  401294:	f2 ff 25 9d 4d 00 00 	bnd jmpq *0x4d9d(%rip)        # 406038 <free@GLIBC_2.2.5>
  40129b:	0f 1f 44 00 00       	nopl   0x0(%rax,%rax,1)

00000000004012a0 <curl_global_init@plt>:
  4012a0:	f3 0f 1e fa          	endbr64 
  4012a4:	f2 ff 25 95 4d 00 00 	bnd jmpq *0x4d95(%rip)        # 406040 <curl_global_init@CURL_OPENSSL_4>
  4012ab:	0f 1f 44 00 00       	nopl   0x0(%rax,%rax,1)

00000000004012b0 <strncmp@plt>:
  4012b0:	f3 0f 1e fa          	endbr64 
  4012b4:	f2 ff 25 8d 4d 00 00 	bnd jmpq *0x4d8d(%rip)        # 406048 <strncmp@GLIBC_2.2.5>
  4012bb:	0f 1f 44 00 00       	nopl   0x0(%rax,%rax,1)

00000000004012c0 <__fprintf_chk@plt>:
  4012c0:	f3 0f 1e fa          	endbr64 
  4012c4:	f2 ff 25 85 4d 00 00 	bnd jmpq *0x4d85(%rip)        # 406050 <__fprintf_chk@GLIBC_2.3.4>
  4012cb:	0f 1f 44 00 00       	nopl   0x0(%rax,%rax,1)

00000000004012d0 <alarm@plt>:
  4012d0:	f3 0f 1e fa          	endbr64 
  4012d4:	f2 ff 25 7d 4d 00 00 	bnd jmpq *0x4d7d(%rip)        # 406058 <alarm@GLIBC_2.2.5>
  4012db:	0f 1f 44 00 00       	nopl   0x0(%rax,%rax,1)

00000000004012e0 <__stack_chk_fail@plt>:
  4012e0:	f3 0f 1e fa          	endbr64 
  4012e4:	f2 ff 25 75 4d 00 00 	bnd jmpq *0x4d75(%rip)        # 406060 <__stack_chk_fail@GLIBC_2.4>
  4012eb:	0f 1f 44 00 00       	nopl   0x0(%rax,%rax,1)

00000000004012f0 <memset@plt>:
  4012f0:	f3 0f 1e fa          	endbr64 
  4012f4:	f2 ff 25 6d 4d 00 00 	bnd jmpq *0x4d6d(%rip)        # 406068 <memset@GLIBC_2.2.5>
  4012fb:	0f 1f 44 00 00       	nopl   0x0(%rax,%rax,1)

0000000000401300 <signal@plt>:
  401300:	f3 0f 1e fa          	endbr64 
  401304:	f2 ff 25 65 4d 00 00 	bnd jmpq *0x4d65(%rip)        # 406070 <signal@GLIBC_2.2.5>
  40130b:	0f 1f 44 00 00       	nopl   0x0(%rax,%rax,1)

0000000000401310 <getc@plt>:
  401310:	f3 0f 1e fa          	endbr64 
  401314:	f2 ff 25 5d 4d 00 00 	bnd jmpq *0x4d5d(%rip)        # 406078 <getc@GLIBC_2.2.5>
  40131b:	0f 1f 44 00 00       	nopl   0x0(%rax,%rax,1)

0000000000401320 <curl_easy_strerror@plt>:
  401320:	f3 0f 1e fa          	endbr64 
  401324:	f2 ff 25 55 4d 00 00 	bnd jmpq *0x4d55(%rip)        # 406080 <curl_easy_strerror@CURL_OPENSSL_4>
  40132b:	0f 1f 44 00 00       	nopl   0x0(%rax,%rax,1)

0000000000401330 <munmap@plt>:
  401330:	f3 0f 1e fa          	endbr64 
  401334:	f2 ff 25 4d 4d 00 00 	bnd jmpq *0x4d4d(%rip)        # 406088 <munmap@GLIBC_2.2.5>
  40133b:	0f 1f 44 00 00       	nopl   0x0(%rax,%rax,1)

0000000000401340 <exit@plt>:
  401340:	f3 0f 1e fa          	endbr64 
  401344:	f2 ff 25 45 4d 00 00 	bnd jmpq *0x4d45(%rip)        # 406090 <exit@GLIBC_2.2.5>
  40134b:	0f 1f 44 00 00       	nopl   0x0(%rax,%rax,1)

0000000000401350 <curl_easy_perform@plt>:
  401350:	f3 0f 1e fa          	endbr64 
  401354:	f2 ff 25 3d 4d 00 00 	bnd jmpq *0x4d3d(%rip)        # 406098 <curl_easy_perform@CURL_OPENSSL_4>
  40135b:	0f 1f 44 00 00       	nopl   0x0(%rax,%rax,1)

0000000000401360 <curl_easy_escape@plt>:
  401360:	f3 0f 1e fa          	endbr64 
  401364:	f2 ff 25 35 4d 00 00 	bnd jmpq *0x4d35(%rip)        # 4060a0 <curl_easy_escape@CURL_OPENSSL_4>
  40136b:	0f 1f 44 00 00       	nopl   0x0(%rax,%rax,1)

0000000000401370 <time@plt>:
  401370:	f3 0f 1e fa          	endbr64 
  401374:	f2 ff 25 2d 4d 00 00 	bnd jmpq *0x4d2d(%rip)        # 4060a8 <time@GLIBC_2.2.5>
  40137b:	0f 1f 44 00 00       	nopl   0x0(%rax,%rax,1)

0000000000401380 <strtoul@plt>:
  401380:	f3 0f 1e fa          	endbr64 
  401384:	f2 ff 25 25 4d 00 00 	bnd jmpq *0x4d25(%rip)        # 4060b0 <strtoul@GLIBC_2.2.5>
  40138b:	0f 1f 44 00 00       	nopl   0x0(%rax,%rax,1)

0000000000401390 <strtol@plt>:
  401390:	f3 0f 1e fa          	endbr64 
  401394:	f2 ff 25 1d 4d 00 00 	bnd jmpq *0x4d1d(%rip)        # 4060b8 <strtol@GLIBC_2.2.5>
  40139b:	0f 1f 44 00 00       	nopl   0x0(%rax,%rax,1)

00000000004013a0 <curl_easy_setopt@plt>:
  4013a0:	f3 0f 1e fa          	endbr64 
  4013a4:	f2 ff 25 15 4d 00 00 	bnd jmpq *0x4d15(%rip)        # 4060c0 <curl_easy_setopt@CURL_OPENSSL_4>
  4013ab:	0f 1f 44 00 00       	nopl   0x0(%rax,%rax,1)

00000000004013b0 <malloc@plt>:
  4013b0:	f3 0f 1e fa          	endbr64 
  4013b4:	f2 ff 25 0d 4d 00 00 	bnd jmpq *0x4d0d(%rip)        # 4060c8 <malloc@GLIBC_2.2.5>
  4013bb:	0f 1f 44 00 00       	nopl   0x0(%rax,%rax,1)

00000000004013c0 <curl_global_cleanup@plt>:
  4013c0:	f3 0f 1e fa          	endbr64 
  4013c4:	f2 ff 25 05 4d 00 00 	bnd jmpq *0x4d05(%rip)        # 4060d0 <curl_global_cleanup@CURL_OPENSSL_4>
  4013cb:	0f 1f 44 00 00       	nopl   0x0(%rax,%rax,1)

00000000004013d0 <getopt@plt>:
  4013d0:	f3 0f 1e fa          	endbr64 
  4013d4:	f2 ff 25 fd 4c 00 00 	bnd jmpq *0x4cfd(%rip)        # 4060d8 <getopt@GLIBC_2.2.5>
  4013db:	0f 1f 44 00 00       	nopl   0x0(%rax,%rax,1)

00000000004013e0 <mmap@plt>:
  4013e0:	f3 0f 1e fa          	endbr64 
  4013e4:	f2 ff 25 f5 4c 00 00 	bnd jmpq *0x4cf5(%rip)        # 4060e0 <mmap@GLIBC_2.2.5>
  4013eb:	0f 1f 44 00 00       	nopl   0x0(%rax,%rax,1)

00000000004013f0 <curl_easy_init@plt>:
  4013f0:	f3 0f 1e fa          	endbr64 
  4013f4:	f2 ff 25 ed 4c 00 00 	bnd jmpq *0x4ced(%rip)        # 4060e8 <curl_easy_init@CURL_OPENSSL_4>
  4013fb:	0f 1f 44 00 00       	nopl   0x0(%rax,%rax,1)

0000000000401400 <puts@plt>:
  401400:	f3 0f 1e fa          	endbr64 
  401404:	f2 ff 25 e5 4c 00 00 	bnd jmpq *0x4ce5(%rip)        # 4060f0 <puts@GLIBC_2.2.5>
  40140b:	0f 1f 44 00 00       	nopl   0x0(%rax,%rax,1)

0000000000401410 <__printf_chk@plt>:
  401410:	f3 0f 1e fa          	endbr64 
  401414:	f2 ff 25 dd 4c 00 00 	bnd jmpq *0x4cdd(%rip)        # 4060f8 <__printf_chk@GLIBC_2.3.4>
  40141b:	0f 1f 44 00 00       	nopl   0x0(%rax,%rax,1)

0000000000401420 <srandom@plt>:
  401420:	f3 0f 1e fa          	endbr64 
  401424:	f2 ff 25 d5 4c 00 00 	bnd jmpq *0x4cd5(%rip)        # 406100 <srandom@GLIBC_2.2.5>
  40142b:	0f 1f 44 00 00       	nopl   0x0(%rax,%rax,1)

0000000000401430 <random@plt>:
  401430:	f3 0f 1e fa          	endbr64 
  401434:	f2 ff 25 cd 4c 00 00 	bnd jmpq *0x4ccd(%rip)        # 406108 <random@GLIBC_2.2.5>
  40143b:	0f 1f 44 00 00       	nopl   0x0(%rax,%rax,1)

0000000000401440 <__sprintf_chk@plt>:
  401440:	f3 0f 1e fa          	endbr64 
  401444:	f2 ff 25 c5 4c 00 00 	bnd jmpq *0x4cc5(%rip)        # 406110 <__sprintf_chk@GLIBC_2.3.4>
  40144b:	0f 1f 44 00 00       	nopl   0x0(%rax,%rax,1)

0000000000401450 <fopen@plt>:
  401450:	f3 0f 1e fa          	endbr64 
  401454:	f2 ff 25 bd 4c 00 00 	bnd jmpq *0x4cbd(%rip)        # 406118 <fopen@GLIBC_2.2.5>
  40145b:	0f 1f 44 00 00       	nopl   0x0(%rax,%rax,1)

0000000000401460 <__snprintf_chk@plt>:
  401460:	f3 0f 1e fa          	endbr64 
  401464:	f2 ff 25 b5 4c 00 00 	bnd jmpq *0x4cb5(%rip)        # 406120 <__snprintf_chk@GLIBC_2.3.4>
  40146b:	0f 1f 44 00 00       	nopl   0x0(%rax,%rax,1)

Disassembly of section .text:

0000000000401470 <_start>:
  401470:	f3 0f 1e fa          	endbr64 
  401474:	31 ed                	xor    %ebp,%ebp
  401476:	49 89 d1             	mov    %rdx,%r9
  401479:	5e                   	pop    %rsi
  40147a:	48 89 e2             	mov    %rsp,%rdx
  40147d:	48 83 e4 f0          	and    $0xfffffffffffffff0,%rsp
  401481:	50                   	push   %rax
  401482:	54                   	push   %rsp
  401483:	49 c7 c0 90 2d 40 00 	mov    $0x402d90,%r8
  40148a:	48 c7 c1 20 2d 40 00 	mov    $0x402d20,%rcx
  401491:	48 c7 c7 09 17 40 00 	mov    $0x401709,%rdi
  401498:	ff 15 5a 4b 00 00    	callq  *0x4b5a(%rip)        # 405ff8 <__libc_start_main@GLIBC_2.2.5>
  40149e:	f4                   	hlt    
  40149f:	90                   	nop

00000000004014a0 <_dl_relocate_static_pie>:
  4014a0:	f3 0f 1e fa          	endbr64 
  4014a4:	c3                   	retq   
  4014a5:	66 2e 0f 1f 84 00 00 	nopw   %cs:0x0(%rax,%rax,1)
  4014ac:	00 00 00 
  4014af:	90                   	nop

00000000004014b0 <deregister_tm_clones>:
  4014b0:	b8 68 61 40 00       	mov    $0x406168,%eax
  4014b5:	48 3d 68 61 40 00    	cmp    $0x406168,%rax
  4014bb:	74 13                	je     4014d0 <deregister_tm_clones+0x20>
  4014bd:	b8 00 00 00 00       	mov    $0x0,%eax
  4014c2:	48 85 c0             	test   %rax,%rax
  4014c5:	74 09                	je     4014d0 <deregister_tm_clones+0x20>
  4014c7:	bf 68 61 40 00       	mov    $0x406168,%edi
  4014cc:	ff e0                	jmpq   *%rax
  4014ce:	66 90                	xchg   %ax,%ax
  4014d0:	c3                   	retq   
  4014d1:	66 66 2e 0f 1f 84 00 	data16 nopw %cs:0x0(%rax,%rax,1)
  4014d8:	00 00 00 00 
  4014dc:	0f 1f 40 00          	nopl   0x0(%rax)

00000000004014e0 <register_tm_clones>:
  4014e0:	be 68 61 40 00       	mov    $0x406168,%esi
  4014e5:	48 81 ee 68 61 40 00 	sub    $0x406168,%rsi
  4014ec:	48 89 f0             	mov    %rsi,%rax
  4014ef:	48 c1 ee 3f          	shr    $0x3f,%rsi
  4014f3:	48 c1 f8 03          	sar    $0x3,%rax
  4014f7:	48 01 c6             	add    %rax,%rsi
  4014fa:	48 d1 fe             	sar    %rsi
  4014fd:	74 11                	je     401510 <register_tm_clones+0x30>
  4014ff:	b8 00 00 00 00       	mov    $0x0,%eax
  401504:	48 85 c0             	test   %rax,%rax
  401507:	74 07                	je     401510 <register_tm_clones+0x30>
  401509:	bf 68 61 40 00       	mov    $0x406168,%edi
  40150e:	ff e0                	jmpq   *%rax
  401510:	c3                   	retq   
  401511:	66 66 2e 0f 1f 84 00 	data16 nopw %cs:0x0(%rax,%rax,1)
  401518:	00 00 00 00 
  40151c:	0f 1f 40 00          	nopl   0x0(%rax)

0000000000401520 <__do_global_dtors_aux>:
  401520:	f3 0f 1e fa          	endbr64 
  401524:	80 3d 8d 4c 00 00 00 	cmpb   $0x0,0x4c8d(%rip)        # 4061b8 <completed.8060>
  40152b:	75 13                	jne    401540 <__do_global_dtors_aux+0x20>
  40152d:	55                   	push   %rbp
  40152e:	48 89 e5             	mov    %rsp,%rbp
  401531:	e8 7a ff ff ff       	callq  4014b0 <deregister_tm_clones>
  401536:	c6 05 7b 4c 00 00 01 	movb   $0x1,0x4c7b(%rip)        # 4061b8 <completed.8060>
  40153d:	5d                   	pop    %rbp
  40153e:	c3                   	retq   
  40153f:	90                   	nop
  401540:	c3                   	retq   
  401541:	66 66 2e 0f 1f 84 00 	data16 nopw %cs:0x0(%rax,%rax,1)
  401548:	00 00 00 00 
  40154c:	0f 1f 40 00          	nopl   0x0(%rax)

0000000000401550 <frame_dummy>:
  401550:	f3 0f 1e fa          	endbr64 
  401554:	eb 8a                	jmp    4014e0 <register_tm_clones>

0000000000401556 <usage>:
  401556:	50                   	push   %rax
  401557:	58                   	pop    %rax
  401558:	48 83 ec 08          	sub    $0x8,%rsp
  40155c:	48 89 fa             	mov    %rdi,%rdx
  40155f:	83 3d a2 4f 00 00 00 	cmpl   $0x0,0x4fa2(%rip)        # 406508 <is_checker>
  401566:	74 50                	je     4015b8 <usage+0x62>
  401568:	48 8d 35 99 1a 00 00 	lea    0x1a99(%rip),%rsi        # 403008 <_IO_stdin_used+0x8>
  40156f:	bf 01 00 00 00       	mov    $0x1,%edi
  401574:	b8 00 00 00 00       	mov    $0x0,%eax
  401579:	e8 92 fe ff ff       	callq  401410 <__printf_chk@plt>
  40157e:	48 8d 3d bb 1a 00 00 	lea    0x1abb(%rip),%rdi        # 403040 <_IO_stdin_used+0x40>
  401585:	e8 76 fe ff ff       	callq  401400 <puts@plt>
  40158a:	48 8d 3d af 1b 00 00 	lea    0x1baf(%rip),%rdi        # 403140 <_IO_stdin_used+0x140>
  401591:	e8 6a fe ff ff       	callq  401400 <puts@plt>
  401596:	48 8d 3d cb 1a 00 00 	lea    0x1acb(%rip),%rdi        # 403068 <_IO_stdin_used+0x68>
  40159d:	e8 5e fe ff ff       	callq  401400 <puts@plt>
  4015a2:	48 8d 3d b1 1b 00 00 	lea    0x1bb1(%rip),%rdi        # 40315a <_IO_stdin_used+0x15a>
  4015a9:	e8 52 fe ff ff       	callq  401400 <puts@plt>
  4015ae:	bf 00 00 00 00       	mov    $0x0,%edi
  4015b3:	e8 88 fd ff ff       	callq  401340 <exit@plt>
  4015b8:	48 8d 35 b7 1b 00 00 	lea    0x1bb7(%rip),%rsi        # 403176 <_IO_stdin_used+0x176>
  4015bf:	bf 01 00 00 00       	mov    $0x1,%edi
  4015c4:	b8 00 00 00 00       	mov    $0x0,%eax
  4015c9:	e8 42 fe ff ff       	callq  401410 <__printf_chk@plt>
  4015ce:	48 8d 3d bb 1a 00 00 	lea    0x1abb(%rip),%rdi        # 403090 <_IO_stdin_used+0x90>
  4015d5:	e8 26 fe ff ff       	callq  401400 <puts@plt>
  4015da:	48 8d 3d d7 1a 00 00 	lea    0x1ad7(%rip),%rdi        # 4030b8 <_IO_stdin_used+0xb8>
  4015e1:	e8 1a fe ff ff       	callq  401400 <puts@plt>
  4015e6:	48 8d 3d a7 1b 00 00 	lea    0x1ba7(%rip),%rdi        # 403194 <_IO_stdin_used+0x194>
  4015ed:	e8 0e fe ff ff       	callq  401400 <puts@plt>
  4015f2:	eb ba                	jmp    4015ae <usage+0x58>

00000000004015f4 <initialize_target>:
  4015f4:	55                   	push   %rbp
  4015f5:	53                   	push   %rbx
  4015f6:	48 81 ec 00 10 00 00 	sub    $0x1000,%rsp
  4015fd:	48 83 0c 24 00       	orq    $0x0,(%rsp)
  401602:	48 81 ec 00 10 00 00 	sub    $0x1000,%rsp
  401609:	48 83 0c 24 00       	orq    $0x0,(%rsp)
  40160e:	48 83 ec 18          	sub    $0x18,%rsp
  401612:	89 f5                	mov    %esi,%ebp
  401614:	64 48 8b 04 25 28 00 	mov    %fs:0x28,%rax
  40161b:	00 00 
  40161d:	48 89 84 24 08 20 00 	mov    %rax,0x2008(%rsp)
  401624:	00 
  401625:	31 c0                	xor    %eax,%eax
  401627:	89 3d cb 4e 00 00    	mov    %edi,0x4ecb(%rip)        # 4064f8 <check_level>
  40162d:	8b 3d 05 4b 00 00    	mov    0x4b05(%rip),%edi        # 406138 <target_id>
  401633:	e8 ba 16 00 00       	callq  402cf2 <gencookie>
  401638:	89 c7                	mov    %eax,%edi
  40163a:	89 05 c4 4e 00 00    	mov    %eax,0x4ec4(%rip)        # 406504 <cookie>
  401640:	e8 ad 16 00 00       	callq  402cf2 <gencookie>
  401645:	89 05 b5 4e 00 00    	mov    %eax,0x4eb5(%rip)        # 406500 <authkey>
  40164b:	8b 05 e7 4a 00 00    	mov    0x4ae7(%rip),%eax        # 406138 <target_id>
  401651:	8d 78 01             	lea    0x1(%rax),%edi
  401654:	e8 c7 fd ff ff       	callq  401420 <srandom@plt>
  401659:	e8 d2 fd ff ff       	callq  401430 <random@plt>
  40165e:	48 89 c7             	mov    %rax,%rdi
  401661:	e8 93 02 00 00       	callq  4018f9 <scramble>
  401666:	89 c3                	mov    %eax,%ebx
  401668:	85 ed                	test   %ebp,%ebp
  40166a:	75 50                	jne    4016bc <initialize_target+0xc8>
  40166c:	b8 00 00 00 00       	mov    $0x0,%eax
  401671:	01 d8                	add    %ebx,%eax
  401673:	0f b7 c0             	movzwl %ax,%eax
  401676:	8d 04 c5 00 01 00 00 	lea    0x100(,%rax,8),%eax
  40167d:	89 c0                	mov    %eax,%eax
  40167f:	48 89 05 d2 4a 00 00 	mov    %rax,0x4ad2(%rip)        # 406158 <buf_offset>
  401686:	c6 05 9b 5a 00 00 72 	movb   $0x72,0x5a9b(%rip)        # 407128 <target_prefix>
  40168d:	83 3d cc 4a 00 00 00 	cmpl   $0x0,0x4acc(%rip)        # 406160 <notify>
  401694:	74 09                	je     40169f <initialize_target+0xab>
  401696:	83 3d 6b 4e 00 00 00 	cmpl   $0x0,0x4e6b(%rip)        # 406508 <is_checker>
  40169d:	74 36                	je     4016d5 <initialize_target+0xe1>
  40169f:	48 8b 84 24 08 20 00 	mov    0x2008(%rsp),%rax
  4016a6:	00 
  4016a7:	64 48 33 04 25 28 00 	xor    %fs:0x28,%rax
  4016ae:	00 00 
  4016b0:	75 52                	jne    401704 <initialize_target+0x110>
  4016b2:	48 81 c4 18 20 00 00 	add    $0x2018,%rsp
  4016b9:	5b                   	pop    %rbx
  4016ba:	5d                   	pop    %rbp
  4016bb:	c3                   	retq   
  4016bc:	bf 00 00 00 00       	mov    $0x0,%edi
  4016c1:	e8 aa fc ff ff       	callq  401370 <time@plt>
  4016c6:	48 89 c7             	mov    %rax,%rdi
  4016c9:	e8 52 fd ff ff       	callq  401420 <srandom@plt>
  4016ce:	e8 5d fd ff ff       	callq  401430 <random@plt>
  4016d3:	eb 9c                	jmp    401671 <initialize_target+0x7d>
  4016d5:	48 89 e7             	mov    %rsp,%rdi
  4016d8:	e8 46 15 00 00       	callq  402c23 <init_driver>
  4016dd:	85 c0                	test   %eax,%eax
  4016df:	79 be                	jns    40169f <initialize_target+0xab>
  4016e1:	48 89 e2             	mov    %rsp,%rdx
  4016e4:	48 8d 35 fd 19 00 00 	lea    0x19fd(%rip),%rsi        # 4030e8 <_IO_stdin_used+0xe8>
  4016eb:	bf 01 00 00 00       	mov    $0x1,%edi
  4016f0:	b8 00 00 00 00       	mov    $0x0,%eax
  4016f5:	e8 16 fd ff ff       	callq  401410 <__printf_chk@plt>
  4016fa:	bf 08 00 00 00       	mov    $0x8,%edi
  4016ff:	e8 3c fc ff ff       	callq  401340 <exit@plt>
  401704:	e8 d7 fb ff ff       	callq  4012e0 <__stack_chk_fail@plt>

0000000000401709 <main>:
  401709:	f3 0f 1e fa          	endbr64 
  40170d:	41 56                	push   %r14
  40170f:	41 55                	push   %r13
  401711:	41 54                	push   %r12
  401713:	55                   	push   %rbp
  401714:	53                   	push   %rbx
  401715:	89 fd                	mov    %edi,%ebp
  401717:	48 89 f3             	mov    %rsi,%rbx
  40171a:	48 c7 c6 d9 25 40 00 	mov    $0x4025d9,%rsi
  401721:	bf 0b 00 00 00       	mov    $0xb,%edi
  401726:	e8 d5 fb ff ff       	callq  401300 <signal@plt>
  40172b:	48 c7 c6 7f 25 40 00 	mov    $0x40257f,%rsi
  401732:	bf 07 00 00 00       	mov    $0x7,%edi
  401737:	e8 c4 fb ff ff       	callq  401300 <signal@plt>
  40173c:	48 c7 c6 33 26 40 00 	mov    $0x402633,%rsi
  401743:	bf 04 00 00 00       	mov    $0x4,%edi
  401748:	e8 b3 fb ff ff       	callq  401300 <signal@plt>
  40174d:	83 3d b4 4d 00 00 00 	cmpl   $0x0,0x4db4(%rip)        # 406508 <is_checker>
  401754:	75 26                	jne    40177c <main+0x73>
  401756:	4c 8d 25 58 1a 00 00 	lea    0x1a58(%rip),%r12        # 4031b5 <_IO_stdin_used+0x1b5>
  40175d:	48 8b 05 4c 4a 00 00 	mov    0x4a4c(%rip),%rax        # 4061b0 <stdin@@GLIBC_2.2.5>
  401764:	48 89 05 85 4d 00 00 	mov    %rax,0x4d85(%rip)        # 4064f0 <infile>
  40176b:	41 bd 00 00 00 00    	mov    $0x0,%r13d
  401771:	41 be 00 00 00 00    	mov    $0x0,%r14d
  401777:	e9 8d 00 00 00       	jmpq   401809 <main+0x100>
  40177c:	48 c7 c6 8d 26 40 00 	mov    $0x40268d,%rsi
  401783:	bf 0e 00 00 00       	mov    $0xe,%edi
  401788:	e8 73 fb ff ff       	callq  401300 <signal@plt>
  40178d:	bf 05 00 00 00       	mov    $0x5,%edi
  401792:	e8 39 fb ff ff       	callq  4012d0 <alarm@plt>
  401797:	4c 8d 25 0f 1a 00 00 	lea    0x1a0f(%rip),%r12        # 4031ad <_IO_stdin_used+0x1ad>
  40179e:	eb bd                	jmp    40175d <main+0x54>
  4017a0:	48 8b 3b             	mov    (%rbx),%rdi
  4017a3:	e8 ae fd ff ff       	callq  401556 <usage>
  4017a8:	48 8d 35 56 1c 00 00 	lea    0x1c56(%rip),%rsi        # 403405 <_IO_stdin_used+0x405>
  4017af:	48 8b 3d ca 49 00 00 	mov    0x49ca(%rip),%rdi        # 406180 <optarg@@GLIBC_2.2.5>
  4017b6:	e8 95 fc ff ff       	callq  401450 <fopen@plt>
  4017bb:	48 89 05 2e 4d 00 00 	mov    %rax,0x4d2e(%rip)        # 4064f0 <infile>
  4017c2:	48 85 c0             	test   %rax,%rax
  4017c5:	75 42                	jne    401809 <main+0x100>
  4017c7:	48 8b 0d b2 49 00 00 	mov    0x49b2(%rip),%rcx        # 406180 <optarg@@GLIBC_2.2.5>
  4017ce:	48 8d 15 e5 19 00 00 	lea    0x19e5(%rip),%rdx        # 4031ba <_IO_stdin_used+0x1ba>
  4017d5:	be 01 00 00 00       	mov    $0x1,%esi
  4017da:	48 8b 3d bf 49 00 00 	mov    0x49bf(%rip),%rdi        # 4061a0 <stderr@@GLIBC_2.2.5>
  4017e1:	e8 da fa ff ff       	callq  4012c0 <__fprintf_chk@plt>
  4017e6:	b8 01 00 00 00       	mov    $0x1,%eax
  4017eb:	e9 db 00 00 00       	jmpq   4018cb <main+0x1c2>
  4017f0:	ba 10 00 00 00       	mov    $0x10,%edx
  4017f5:	be 00 00 00 00       	mov    $0x0,%esi
  4017fa:	48 8b 3d 7f 49 00 00 	mov    0x497f(%rip),%rdi        # 406180 <optarg@@GLIBC_2.2.5>
  401801:	e8 7a fb ff ff       	callq  401380 <strtoul@plt>
  401806:	41 89 c6             	mov    %eax,%r14d
  401809:	4c 89 e2             	mov    %r12,%rdx
  40180c:	48 89 de             	mov    %rbx,%rsi
  40180f:	89 ef                	mov    %ebp,%edi
  401811:	e8 ba fb ff ff       	callq  4013d0 <getopt@plt>
  401816:	3c ff                	cmp    $0xff,%al
  401818:	74 65                	je     40187f <main+0x176>
  40181a:	0f be c8             	movsbl %al,%ecx
  40181d:	83 e8 61             	sub    $0x61,%eax
  401820:	3c 10                	cmp    $0x10,%al
  401822:	77 3b                	ja     40185f <main+0x156>
  401824:	0f b6 c0             	movzbl %al,%eax
  401827:	48 8d 15 ca 19 00 00 	lea    0x19ca(%rip),%rdx        # 4031f8 <_IO_stdin_used+0x1f8>
  40182e:	48 63 04 82          	movslq (%rdx,%rax,4),%rax
  401832:	48 01 d0             	add    %rdx,%rax
  401835:	3e ff e0             	notrack jmpq *%rax
  401838:	ba 0a 00 00 00       	mov    $0xa,%edx
  40183d:	be 00 00 00 00       	mov    $0x0,%esi
  401842:	48 8b 3d 37 49 00 00 	mov    0x4937(%rip),%rdi        # 406180 <optarg@@GLIBC_2.2.5>
  401849:	e8 42 fb ff ff       	callq  401390 <strtol@plt>
  40184e:	41 89 c5             	mov    %eax,%r13d
  401851:	eb b6                	jmp    401809 <main+0x100>
  401853:	c7 05 03 49 00 00 00 	movl   $0x0,0x4903(%rip)        # 406160 <notify>
  40185a:	00 00 00 
  40185d:	eb aa                	jmp    401809 <main+0x100>
  40185f:	89 ca                	mov    %ecx,%edx
  401861:	48 8d 35 6f 19 00 00 	lea    0x196f(%rip),%rsi        # 4031d7 <_IO_stdin_used+0x1d7>
  401868:	bf 01 00 00 00       	mov    $0x1,%edi
  40186d:	b8 00 00 00 00       	mov    $0x0,%eax
  401872:	e8 99 fb ff ff       	callq  401410 <__printf_chk@plt>
  401877:	48 8b 3b             	mov    (%rbx),%rdi
  40187a:	e8 d7 fc ff ff       	callq  401556 <usage>
  40187f:	be 01 00 00 00       	mov    $0x1,%esi
  401884:	44 89 ef             	mov    %r13d,%edi
  401887:	e8 68 fd ff ff       	callq  4015f4 <initialize_target>
  40188c:	83 3d 75 4c 00 00 00 	cmpl   $0x0,0x4c75(%rip)        # 406508 <is_checker>
  401893:	74 09                	je     40189e <main+0x195>
  401895:	44 39 35 64 4c 00 00 	cmp    %r14d,0x4c64(%rip)        # 406500 <authkey>
  40189c:	75 36                	jne    4018d4 <main+0x1cb>
  40189e:	8b 15 60 4c 00 00    	mov    0x4c60(%rip),%edx        # 406504 <cookie>
  4018a4:	48 8d 35 3f 19 00 00 	lea    0x193f(%rip),%rsi        # 4031ea <_IO_stdin_used+0x1ea>
  4018ab:	bf 01 00 00 00       	mov    $0x1,%edi
  4018b0:	b8 00 00 00 00       	mov    $0x0,%eax
  4018b5:	e8 56 fb ff ff       	callq  401410 <__printf_chk@plt>
  4018ba:	48 8b 3d 97 48 00 00 	mov    0x4897(%rip),%rdi        # 406158 <buf_offset>
  4018c1:	e8 24 0e 00 00       	callq  4026ea <launch>
  4018c6:	b8 00 00 00 00       	mov    $0x0,%eax
  4018cb:	5b                   	pop    %rbx
  4018cc:	5d                   	pop    %rbp
  4018cd:	41 5c                	pop    %r12
  4018cf:	41 5d                	pop    %r13
  4018d1:	41 5e                	pop    %r14
  4018d3:	c3                   	retq   
  4018d4:	44 89 f2             	mov    %r14d,%edx
  4018d7:	48 8d 35 32 18 00 00 	lea    0x1832(%rip),%rsi        # 403110 <_IO_stdin_used+0x110>
  4018de:	bf 01 00 00 00       	mov    $0x1,%edi
  4018e3:	b8 00 00 00 00       	mov    $0x0,%eax
  4018e8:	e8 23 fb ff ff       	callq  401410 <__printf_chk@plt>
  4018ed:	b8 00 00 00 00       	mov    $0x0,%eax
  4018f2:	e8 e6 08 00 00       	callq  4021dd <check_fail>
  4018f7:	eb a5                	jmp    40189e <main+0x195>

00000000004018f9 <scramble>:
  4018f9:	f3 0f 1e fa          	endbr64 
  4018fd:	48 83 ec 38          	sub    $0x38,%rsp
  401901:	64 48 8b 04 25 28 00 	mov    %fs:0x28,%rax
  401908:	00 00 
  40190a:	48 89 44 24 28       	mov    %rax,0x28(%rsp)
  40190f:	31 c0                	xor    %eax,%eax
  401911:	83 f8 09             	cmp    $0x9,%eax
  401914:	77 12                	ja     401928 <scramble+0x2f>
  401916:	69 d0 8e 49 00 00    	imul   $0x498e,%eax,%edx
  40191c:	01 fa                	add    %edi,%edx
  40191e:	89 c1                	mov    %eax,%ecx
  401920:	89 14 8c             	mov    %edx,(%rsp,%rcx,4)
  401923:	83 c0 01             	add    $0x1,%eax
  401926:	eb e9                	jmp    401911 <scramble+0x18>
  401928:	8b 44 24 04          	mov    0x4(%rsp),%eax
  40192c:	69 c0 d8 04 00 00    	imul   $0x4d8,%eax,%eax
  401932:	89 44 24 04          	mov    %eax,0x4(%rsp)
  401936:	8b 44 24 0c          	mov    0xc(%rsp),%eax
  40193a:	69 c0 a3 32 00 00    	imul   $0x32a3,%eax,%eax
  401940:	89 44 24 0c          	mov    %eax,0xc(%rsp)
  401944:	8b 44 24 24          	mov    0x24(%rsp),%eax
  401948:	69 c0 26 4d 00 00    	imul   $0x4d26,%eax,%eax
  40194e:	89 44 24 24          	mov    %eax,0x24(%rsp)
  401952:	8b 44 24 20          	mov    0x20(%rsp),%eax
  401956:	69 c0 cf c5 00 00    	imul   $0xc5cf,%eax,%eax
  40195c:	89 44 24 20          	mov    %eax,0x20(%rsp)
  401960:	8b 44 24 08          	mov    0x8(%rsp),%eax
  401964:	69 c0 d8 d6 00 00    	imul   $0xd6d8,%eax,%eax
  40196a:	89 44 24 08          	mov    %eax,0x8(%rsp)
  40196e:	8b 04 24             	mov    (%rsp),%eax
  401971:	69 c0 ac 98 00 00    	imul   $0x98ac,%eax,%eax
  401977:	89 04 24             	mov    %eax,(%rsp)
  40197a:	8b 44 24 10          	mov    0x10(%rsp),%eax
  40197e:	69 c0 4d b3 00 00    	imul   $0xb34d,%eax,%eax
  401984:	89 44 24 10          	mov    %eax,0x10(%rsp)
  401988:	8b 44 24 20          	mov    0x20(%rsp),%eax
  40198c:	69 c0 81 ac 00 00    	imul   $0xac81,%eax,%eax
  401992:	89 44 24 20          	mov    %eax,0x20(%rsp)
  401996:	8b 44 24 10          	mov    0x10(%rsp),%eax
  40199a:	69 c0 6f 92 00 00    	imul   $0x926f,%eax,%eax
  4019a0:	89 44 24 10          	mov    %eax,0x10(%rsp)
  4019a4:	8b 44 24 14          	mov    0x14(%rsp),%eax
  4019a8:	69 c0 ff 96 00 00    	imul   $0x96ff,%eax,%eax
  4019ae:	89 44 24 14          	mov    %eax,0x14(%rsp)
  4019b2:	8b 44 24 24          	mov    0x24(%rsp),%eax
  4019b6:	69 c0 e2 28 00 00    	imul   $0x28e2,%eax,%eax
  4019bc:	89 44 24 24          	mov    %eax,0x24(%rsp)
  4019c0:	8b 44 24 0c          	mov    0xc(%rsp),%eax
  4019c4:	69 c0 e8 35 00 00    	imul   $0x35e8,%eax,%eax
  4019ca:	89 44 24 0c          	mov    %eax,0xc(%rsp)
  4019ce:	8b 44 24 08          	mov    0x8(%rsp),%eax
  4019d2:	69 c0 8c 76 00 00    	imul   $0x768c,%eax,%eax
  4019d8:	89 44 24 08          	mov    %eax,0x8(%rsp)
  4019dc:	8b 44 24 1c          	mov    0x1c(%rsp),%eax
  4019e0:	69 c0 96 b4 00 00    	imul   $0xb496,%eax,%eax
  4019e6:	89 44 24 1c          	mov    %eax,0x1c(%rsp)
  4019ea:	8b 44 24 04          	mov    0x4(%rsp),%eax
  4019ee:	69 c0 b7 8e 00 00    	imul   $0x8eb7,%eax,%eax
  4019f4:	89 44 24 04          	mov    %eax,0x4(%rsp)
  4019f8:	8b 44 24 24          	mov    0x24(%rsp),%eax
  4019fc:	69 c0 e5 ff 00 00    	imul   $0xffe5,%eax,%eax
  401a02:	89 44 24 24          	mov    %eax,0x24(%rsp)
  401a06:	8b 04 24             	mov    (%rsp),%eax
  401a09:	69 c0 74 c2 00 00    	imul   $0xc274,%eax,%eax
  401a0f:	89 04 24             	mov    %eax,(%rsp)
  401a12:	8b 44 24 1c          	mov    0x1c(%rsp),%eax
  401a16:	69 c0 04 7e 00 00    	imul   $0x7e04,%eax,%eax
  401a1c:	89 44 24 1c          	mov    %eax,0x1c(%rsp)
  401a20:	8b 44 24 20          	mov    0x20(%rsp),%eax
  401a24:	69 c0 4b ed 00 00    	imul   $0xed4b,%eax,%eax
  401a2a:	89 44 24 20          	mov    %eax,0x20(%rsp)
  401a2e:	8b 44 24 18          	mov    0x18(%rsp),%eax
  401a32:	69 c0 15 bf 00 00    	imul   $0xbf15,%eax,%eax
  401a38:	89 44 24 18          	mov    %eax,0x18(%rsp)
  401a3c:	8b 04 24             	mov    (%rsp),%eax
  401a3f:	69 c0 c2 83 00 00    	imul   $0x83c2,%eax,%eax
  401a45:	89 04 24             	mov    %eax,(%rsp)
  401a48:	8b 44 24 04          	mov    0x4(%rsp),%eax
  401a4c:	6b c0 42             	imul   $0x42,%eax,%eax
  401a4f:	89 44 24 04          	mov    %eax,0x4(%rsp)
  401a53:	8b 44 24 14          	mov    0x14(%rsp),%eax
  401a57:	69 c0 6e d8 00 00    	imul   $0xd86e,%eax,%eax
  401a5d:	89 44 24 14          	mov    %eax,0x14(%rsp)
  401a61:	8b 44 24 20          	mov    0x20(%rsp),%eax
  401a65:	69 c0 7d df 00 00    	imul   $0xdf7d,%eax,%eax
  401a6b:	89 44 24 20          	mov    %eax,0x20(%rsp)
  401a6f:	8b 44 24 14          	mov    0x14(%rsp),%eax
  401a73:	69 c0 fd 3d 00 00    	imul   $0x3dfd,%eax,%eax
  401a79:	89 44 24 14          	mov    %eax,0x14(%rsp)
  401a7d:	8b 44 24 0c          	mov    0xc(%rsp),%eax
  401a81:	69 c0 af 1c 00 00    	imul   $0x1caf,%eax,%eax
  401a87:	89 44 24 0c          	mov    %eax,0xc(%rsp)
  401a8b:	8b 44 24 24          	mov    0x24(%rsp),%eax
  401a8f:	69 c0 ce fc 00 00    	imul   $0xfcce,%eax,%eax
  401a95:	89 44 24 24          	mov    %eax,0x24(%rsp)
  401a99:	8b 04 24             	mov    (%rsp),%eax
  401a9c:	69 c0 fc 86 00 00    	imul   $0x86fc,%eax,%eax
  401aa2:	89 04 24             	mov    %eax,(%rsp)
  401aa5:	8b 04 24             	mov    (%rsp),%eax
  401aa8:	69 c0 e7 95 00 00    	imul   $0x95e7,%eax,%eax
  401aae:	89 04 24             	mov    %eax,(%rsp)
  401ab1:	8b 04 24             	mov    (%rsp),%eax
  401ab4:	69 c0 b1 29 00 00    	imul   $0x29b1,%eax,%eax
  401aba:	89 04 24             	mov    %eax,(%rsp)
  401abd:	8b 44 24 18          	mov    0x18(%rsp),%eax
  401ac1:	69 c0 de 61 00 00    	imul   $0x61de,%eax,%eax
  401ac7:	89 44 24 18          	mov    %eax,0x18(%rsp)
  401acb:	8b 44 24 10          	mov    0x10(%rsp),%eax
  401acf:	69 c0 2e b8 00 00    	imul   $0xb82e,%eax,%eax
  401ad5:	89 44 24 10          	mov    %eax,0x10(%rsp)
  401ad9:	8b 44 24 10          	mov    0x10(%rsp),%eax
  401add:	69 c0 1f 5c 00 00    	imul   $0x5c1f,%eax,%eax
  401ae3:	89 44 24 10          	mov    %eax,0x10(%rsp)
  401ae7:	8b 44 24 20          	mov    0x20(%rsp),%eax
  401aeb:	69 c0 ed 33 00 00    	imul   $0x33ed,%eax,%eax
  401af1:	89 44 24 20          	mov    %eax,0x20(%rsp)
  401af5:	8b 44 24 24          	mov    0x24(%rsp),%eax
  401af9:	69 c0 06 7a 00 00    	imul   $0x7a06,%eax,%eax
  401aff:	89 44 24 24          	mov    %eax,0x24(%rsp)
  401b03:	8b 44 24 10          	mov    0x10(%rsp),%eax
  401b07:	69 c0 8e 0d 00 00    	imul   $0xd8e,%eax,%eax
  401b0d:	89 44 24 10          	mov    %eax,0x10(%rsp)
  401b11:	8b 44 24 10          	mov    0x10(%rsp),%eax
  401b15:	69 c0 c5 4a 00 00    	imul   $0x4ac5,%eax,%eax
  401b1b:	89 44 24 10          	mov    %eax,0x10(%rsp)
  401b1f:	8b 44 24 1c          	mov    0x1c(%rsp),%eax
  401b23:	69 c0 d7 34 00 00    	imul   $0x34d7,%eax,%eax
  401b29:	89 44 24 1c          	mov    %eax,0x1c(%rsp)
  401b2d:	8b 44 24 1c          	mov    0x1c(%rsp),%eax
  401b31:	69 c0 93 ba 00 00    	imul   $0xba93,%eax,%eax
  401b37:	89 44 24 1c          	mov    %eax,0x1c(%rsp)
  401b3b:	8b 44 24 08          	mov    0x8(%rsp),%eax
  401b3f:	69 c0 11 8e 00 00    	imul   $0x8e11,%eax,%eax
  401b45:	89 44 24 08          	mov    %eax,0x8(%rsp)
  401b49:	8b 44 24 0c          	mov    0xc(%rsp),%eax
  401b4d:	69 c0 d2 8a 00 00    	imul   $0x8ad2,%eax,%eax
  401b53:	89 44 24 0c          	mov    %eax,0xc(%rsp)
  401b57:	8b 04 24             	mov    (%rsp),%eax
  401b5a:	69 c0 70 5f 00 00    	imul   $0x5f70,%eax,%eax
  401b60:	89 04 24             	mov    %eax,(%rsp)
  401b63:	8b 44 24 18          	mov    0x18(%rsp),%eax
  401b67:	69 c0 58 fd 00 00    	imul   $0xfd58,%eax,%eax
  401b6d:	89 44 24 18          	mov    %eax,0x18(%rsp)
  401b71:	8b 04 24             	mov    (%rsp),%eax
  401b74:	69 c0 fa fa 00 00    	imul   $0xfafa,%eax,%eax
  401b7a:	89 04 24             	mov    %eax,(%rsp)
  401b7d:	8b 44 24 04          	mov    0x4(%rsp),%eax
  401b81:	69 c0 ff 21 00 00    	imul   $0x21ff,%eax,%eax
  401b87:	89 44 24 04          	mov    %eax,0x4(%rsp)
  401b8b:	8b 44 24 24          	mov    0x24(%rsp),%eax
  401b8f:	69 c0 de b7 00 00    	imul   $0xb7de,%eax,%eax
  401b95:	89 44 24 24          	mov    %eax,0x24(%rsp)
  401b99:	8b 44 24 08          	mov    0x8(%rsp),%eax
  401b9d:	69 c0 41 4e 00 00    	imul   $0x4e41,%eax,%eax
  401ba3:	89 44 24 08          	mov    %eax,0x8(%rsp)
  401ba7:	8b 44 24 10          	mov    0x10(%rsp),%eax
  401bab:	69 c0 2f a8 00 00    	imul   $0xa82f,%eax,%eax
  401bb1:	89 44 24 10          	mov    %eax,0x10(%rsp)
  401bb5:	8b 44 24 24          	mov    0x24(%rsp),%eax
  401bb9:	69 c0 3f a6 00 00    	imul   $0xa63f,%eax,%eax
  401bbf:	89 44 24 24          	mov    %eax,0x24(%rsp)
  401bc3:	8b 44 24 14          	mov    0x14(%rsp),%eax
  401bc7:	69 c0 cb f3 00 00    	imul   $0xf3cb,%eax,%eax
  401bcd:	89 44 24 14          	mov    %eax,0x14(%rsp)
  401bd1:	8b 44 24 0c          	mov    0xc(%rsp),%eax
  401bd5:	69 c0 20 cf 00 00    	imul   $0xcf20,%eax,%eax
  401bdb:	89 44 24 0c          	mov    %eax,0xc(%rsp)
  401bdf:	8b 44 24 0c          	mov    0xc(%rsp),%eax
  401be3:	69 c0 0e 1e 00 00    	imul   $0x1e0e,%eax,%eax
  401be9:	89 44 24 0c          	mov    %eax,0xc(%rsp)
  401bed:	8b 44 24 1c          	mov    0x1c(%rsp),%eax
  401bf1:	69 c0 2a 0f 00 00    	imul   $0xf2a,%eax,%eax
  401bf7:	89 44 24 1c          	mov    %eax,0x1c(%rsp)
  401bfb:	8b 44 24 04          	mov    0x4(%rsp),%eax
  401bff:	69 c0 18 3d 00 00    	imul   $0x3d18,%eax,%eax
  401c05:	89 44 24 04          	mov    %eax,0x4(%rsp)
  401c09:	8b 04 24             	mov    (%rsp),%eax
  401c0c:	69 c0 3a 67 00 00    	imul   $0x673a,%eax,%eax
  401c12:	89 04 24             	mov    %eax,(%rsp)
  401c15:	8b 04 24             	mov    (%rsp),%eax
  401c18:	69 c0 4e c2 00 00    	imul   $0xc24e,%eax,%eax
  401c1e:	89 04 24             	mov    %eax,(%rsp)
  401c21:	8b 44 24 08          	mov    0x8(%rsp),%eax
  401c25:	69 c0 eb 75 00 00    	imul   $0x75eb,%eax,%eax
  401c2b:	89 44 24 08          	mov    %eax,0x8(%rsp)
  401c2f:	8b 44 24 24          	mov    0x24(%rsp),%eax
  401c33:	69 c0 ac 79 00 00    	imul   $0x79ac,%eax,%eax
  401c39:	89 44 24 24          	mov    %eax,0x24(%rsp)
  401c3d:	8b 44 24 18          	mov    0x18(%rsp),%eax
  401c41:	69 c0 2a 08 00 00    	imul   $0x82a,%eax,%eax
  401c47:	89 44 24 18          	mov    %eax,0x18(%rsp)
  401c4b:	8b 44 24 1c          	mov    0x1c(%rsp),%eax
  401c4f:	69 c0 83 06 00 00    	imul   $0x683,%eax,%eax
  401c55:	89 44 24 1c          	mov    %eax,0x1c(%rsp)
  401c59:	8b 44 24 08          	mov    0x8(%rsp),%eax
  401c5d:	69 c0 51 99 00 00    	imul   $0x9951,%eax,%eax
  401c63:	89 44 24 08          	mov    %eax,0x8(%rsp)
  401c67:	8b 44 24 14          	mov    0x14(%rsp),%eax
  401c6b:	69 c0 06 ae 00 00    	imul   $0xae06,%eax,%eax
  401c71:	89 44 24 14          	mov    %eax,0x14(%rsp)
  401c75:	8b 44 24 10          	mov    0x10(%rsp),%eax
  401c79:	69 c0 6e 2e 00 00    	imul   $0x2e6e,%eax,%eax
  401c7f:	89 44 24 10          	mov    %eax,0x10(%rsp)
  401c83:	8b 44 24 1c          	mov    0x1c(%rsp),%eax
  401c87:	69 c0 f3 91 00 00    	imul   $0x91f3,%eax,%eax
  401c8d:	89 44 24 1c          	mov    %eax,0x1c(%rsp)
  401c91:	8b 44 24 20          	mov    0x20(%rsp),%eax
  401c95:	69 c0 53 32 00 00    	imul   $0x3253,%eax,%eax
  401c9b:	89 44 24 20          	mov    %eax,0x20(%rsp)
  401c9f:	8b 44 24 14          	mov    0x14(%rsp),%eax
  401ca3:	69 c0 f3 f4 00 00    	imul   $0xf4f3,%eax,%eax
  401ca9:	89 44 24 14          	mov    %eax,0x14(%rsp)
  401cad:	8b 44 24 14          	mov    0x14(%rsp),%eax
  401cb1:	69 c0 18 87 00 00    	imul   $0x8718,%eax,%eax
  401cb7:	89 44 24 14          	mov    %eax,0x14(%rsp)
  401cbb:	8b 44 24 08          	mov    0x8(%rsp),%eax
  401cbf:	69 c0 58 1b 00 00    	imul   $0x1b58,%eax,%eax
  401cc5:	89 44 24 08          	mov    %eax,0x8(%rsp)
  401cc9:	8b 04 24             	mov    (%rsp),%eax
  401ccc:	69 c0 e6 65 00 00    	imul   $0x65e6,%eax,%eax
  401cd2:	89 04 24             	mov    %eax,(%rsp)
  401cd5:	8b 44 24 04          	mov    0x4(%rsp),%eax
  401cd9:	69 c0 ff 5f 00 00    	imul   $0x5fff,%eax,%eax
  401cdf:	89 44 24 04          	mov    %eax,0x4(%rsp)
  401ce3:	8b 44 24 24          	mov    0x24(%rsp),%eax
  401ce7:	69 c0 9a 23 00 00    	imul   $0x239a,%eax,%eax
  401ced:	89 44 24 24          	mov    %eax,0x24(%rsp)
  401cf1:	8b 44 24 14          	mov    0x14(%rsp),%eax
  401cf5:	69 c0 2d bf 00 00    	imul   $0xbf2d,%eax,%eax
  401cfb:	89 44 24 14          	mov    %eax,0x14(%rsp)
  401cff:	8b 44 24 18          	mov    0x18(%rsp),%eax
  401d03:	69 c0 0b 44 00 00    	imul   $0x440b,%eax,%eax
  401d09:	89 44 24 18          	mov    %eax,0x18(%rsp)
  401d0d:	8b 44 24 10          	mov    0x10(%rsp),%eax
  401d11:	69 c0 c9 0c 00 00    	imul   $0xcc9,%eax,%eax
  401d17:	89 44 24 10          	mov    %eax,0x10(%rsp)
  401d1b:	8b 44 24 18          	mov    0x18(%rsp),%eax
  401d1f:	69 c0 80 ad 00 00    	imul   $0xad80,%eax,%eax
  401d25:	89 44 24 18          	mov    %eax,0x18(%rsp)
  401d29:	8b 44 24 08          	mov    0x8(%rsp),%eax
  401d2d:	69 c0 5f 76 00 00    	imul   $0x765f,%eax,%eax
  401d33:	89 44 24 08          	mov    %eax,0x8(%rsp)
  401d37:	8b 04 24             	mov    (%rsp),%eax
  401d3a:	69 c0 ae d1 00 00    	imul   $0xd1ae,%eax,%eax
  401d40:	89 04 24             	mov    %eax,(%rsp)
  401d43:	8b 44 24 1c          	mov    0x1c(%rsp),%eax
  401d47:	69 c0 65 2e 00 00    	imul   $0x2e65,%eax,%eax
  401d4d:	89 44 24 1c          	mov    %eax,0x1c(%rsp)
  401d51:	b8 00 00 00 00       	mov    $0x0,%eax
  401d56:	ba 00 00 00 00       	mov    $0x0,%edx
  401d5b:	83 f8 09             	cmp    $0x9,%eax
  401d5e:	77 0c                	ja     401d6c <scramble+0x473>
  401d60:	89 c1                	mov    %eax,%ecx
  401d62:	8b 0c 8c             	mov    (%rsp,%rcx,4),%ecx
  401d65:	01 ca                	add    %ecx,%edx
  401d67:	83 c0 01             	add    $0x1,%eax
  401d6a:	eb ef                	jmp    401d5b <scramble+0x462>
  401d6c:	48 8b 44 24 28       	mov    0x28(%rsp),%rax
  401d71:	64 48 33 04 25 28 00 	xor    %fs:0x28,%rax
  401d78:	00 00 
  401d7a:	75 07                	jne    401d83 <scramble+0x48a>
  401d7c:	89 d0                	mov    %edx,%eax
  401d7e:	48 83 c4 38          	add    $0x38,%rsp
  401d82:	c3                   	retq   
  401d83:	e8 58 f5 ff ff       	callq  4012e0 <__stack_chk_fail@plt>

0000000000401d88 <getbuf>:
  401d88:	f3 0f 1e fa          	endbr64 
  401d8c:	48 83 ec 38          	sub    $0x38,%rsp
  401d90:	48 89 e7             	mov    %rsp,%rdi
  401d93:	e8 83 04 00 00       	callq  40221b <Gets>
  401d98:	b8 01 00 00 00       	mov    $0x1,%eax
  401d9d:	48 83 c4 38          	add    $0x38,%rsp
  401da1:	c3                   	retq   

0000000000401da2 <touch1>:
  401da2:	f3 0f 1e fa          	endbr64 
  401da6:	50                   	push   %rax
  401da7:	58                   	pop    %rax
  401da8:	48 83 ec 08          	sub    $0x8,%rsp
  401dac:	c7 05 46 47 00 00 01 	movl   $0x1,0x4746(%rip)        # 4064fc <vlevel>
  401db3:	00 00 00 
  401db6:	48 8d 3d 9b 14 00 00 	lea    0x149b(%rip),%rdi        # 403258 <_IO_stdin_used+0x258>
  401dbd:	e8 3e f6 ff ff       	callq  401400 <puts@plt>
  401dc2:	bf 01 00 00 00       	mov    $0x1,%edi
  401dc7:	e8 b3 06 00 00       	callq  40247f <validate>
  401dcc:	bf 00 00 00 00       	mov    $0x0,%edi
  401dd1:	e8 6a f5 ff ff       	callq  401340 <exit@plt>

0000000000401dd6 <touch2>:
  401dd6:	f3 0f 1e fa          	endbr64 
  401dda:	50                   	push   %rax
  401ddb:	58                   	pop    %rax
  401ddc:	48 83 ec 08          	sub    $0x8,%rsp
  401de0:	89 fa                	mov    %edi,%edx
  401de2:	c7 05 10 47 00 00 02 	movl   $0x2,0x4710(%rip)        # 4064fc <vlevel>
  401de9:	00 00 00 
  401dec:	39 3d 12 47 00 00    	cmp    %edi,0x4712(%rip)        # 406504 <cookie>
  401df2:	74 2a                	je     401e1e <touch2+0x48>
  401df4:	48 8d 35 ad 14 00 00 	lea    0x14ad(%rip),%rsi        # 4032a8 <_IO_stdin_used+0x2a8>
  401dfb:	bf 01 00 00 00       	mov    $0x1,%edi
  401e00:	b8 00 00 00 00       	mov    $0x0,%eax
  401e05:	e8 06 f6 ff ff       	callq  401410 <__printf_chk@plt>
  401e0a:	bf 02 00 00 00       	mov    $0x2,%edi
  401e0f:	e8 3f 07 00 00       	callq  402553 <fail>
  401e14:	bf 00 00 00 00       	mov    $0x0,%edi
  401e19:	e8 22 f5 ff ff       	callq  401340 <exit@plt>
  401e1e:	48 8d 35 5b 14 00 00 	lea    0x145b(%rip),%rsi        # 403280 <_IO_stdin_used+0x280>
  401e25:	bf 01 00 00 00       	mov    $0x1,%edi
  401e2a:	b8 00 00 00 00       	mov    $0x0,%eax
  401e2f:	e8 dc f5 ff ff       	callq  401410 <__printf_chk@plt>
  401e34:	bf 02 00 00 00       	mov    $0x2,%edi
  401e39:	e8 41 06 00 00       	callq  40247f <validate>
  401e3e:	eb d4                	jmp    401e14 <touch2+0x3e>

0000000000401e40 <hexmatch>:
  401e40:	f3 0f 1e fa          	endbr64 
  401e44:	41 55                	push   %r13
  401e46:	41 54                	push   %r12
  401e48:	55                   	push   %rbp
  401e49:	53                   	push   %rbx
  401e4a:	48 81 ec 88 00 00 00 	sub    $0x88,%rsp
  401e51:	89 fd                	mov    %edi,%ebp
  401e53:	48 89 f3             	mov    %rsi,%rbx
  401e56:	41 bc 28 00 00 00    	mov    $0x28,%r12d
  401e5c:	64 49 8b 04 24       	mov    %fs:(%r12),%rax
  401e61:	48 89 44 24 78       	mov    %rax,0x78(%rsp)
  401e66:	31 c0                	xor    %eax,%eax
  401e68:	e8 c3 f5 ff ff       	callq  401430 <random@plt>
  401e6d:	48 89 c1             	mov    %rax,%rcx
  401e70:	48 ba 0b d7 a3 70 3d 	movabs $0xa3d70a3d70a3d70b,%rdx
  401e77:	0a d7 a3 
  401e7a:	48 f7 ea             	imul   %rdx
  401e7d:	48 01 ca             	add    %rcx,%rdx
  401e80:	48 c1 fa 06          	sar    $0x6,%rdx
  401e84:	48 89 c8             	mov    %rcx,%rax
  401e87:	48 c1 f8 3f          	sar    $0x3f,%rax
  401e8b:	48 29 c2             	sub    %rax,%rdx
  401e8e:	48 8d 04 92          	lea    (%rdx,%rdx,4),%rax
  401e92:	48 8d 04 80          	lea    (%rax,%rax,4),%rax
  401e96:	48 c1 e0 02          	shl    $0x2,%rax
  401e9a:	48 29 c1             	sub    %rax,%rcx
  401e9d:	4c 8d 2c 0c          	lea    (%rsp,%rcx,1),%r13
  401ea1:	41 89 e8             	mov    %ebp,%r8d
  401ea4:	48 8d 0d ca 13 00 00 	lea    0x13ca(%rip),%rcx        # 403275 <_IO_stdin_used+0x275>
  401eab:	48 c7 c2 ff ff ff ff 	mov    $0xffffffffffffffff,%rdx
  401eb2:	be 01 00 00 00       	mov    $0x1,%esi
  401eb7:	4c 89 ef             	mov    %r13,%rdi
  401eba:	b8 00 00 00 00       	mov    $0x0,%eax
  401ebf:	e8 7c f5 ff ff       	callq  401440 <__sprintf_chk@plt>
  401ec4:	ba 09 00 00 00       	mov    $0x9,%edx
  401ec9:	4c 89 ee             	mov    %r13,%rsi
  401ecc:	48 89 df             	mov    %rbx,%rdi
  401ecf:	e8 dc f3 ff ff       	callq  4012b0 <strncmp@plt>
  401ed4:	85 c0                	test   %eax,%eax
  401ed6:	0f 94 c0             	sete   %al
  401ed9:	48 8b 5c 24 78       	mov    0x78(%rsp),%rbx
  401ede:	64 49 33 1c 24       	xor    %fs:(%r12),%rbx
  401ee3:	75 11                	jne    401ef6 <hexmatch+0xb6>
  401ee5:	0f b6 c0             	movzbl %al,%eax
  401ee8:	48 81 c4 88 00 00 00 	add    $0x88,%rsp
  401eef:	5b                   	pop    %rbx
  401ef0:	5d                   	pop    %rbp
  401ef1:	41 5c                	pop    %r12
  401ef3:	41 5d                	pop    %r13
  401ef5:	c3                   	retq   
  401ef6:	e8 e5 f3 ff ff       	callq  4012e0 <__stack_chk_fail@plt>

0000000000401efb <touch3>:
  401efb:	f3 0f 1e fa          	endbr64 
  401eff:	53                   	push   %rbx
  401f00:	48 89 fb             	mov    %rdi,%rbx
  401f03:	c7 05 ef 45 00 00 03 	movl   $0x3,0x45ef(%rip)        # 4064fc <vlevel>
  401f0a:	00 00 00 
  401f0d:	48 89 fe             	mov    %rdi,%rsi
  401f10:	8b 3d ee 45 00 00    	mov    0x45ee(%rip),%edi        # 406504 <cookie>
  401f16:	e8 25 ff ff ff       	callq  401e40 <hexmatch>
  401f1b:	85 c0                	test   %eax,%eax
  401f1d:	74 2d                	je     401f4c <touch3+0x51>
  401f1f:	48 89 da             	mov    %rbx,%rdx
  401f22:	48 8d 35 a7 13 00 00 	lea    0x13a7(%rip),%rsi        # 4032d0 <_IO_stdin_used+0x2d0>
  401f29:	bf 01 00 00 00       	mov    $0x1,%edi
  401f2e:	b8 00 00 00 00       	mov    $0x0,%eax
  401f33:	e8 d8 f4 ff ff       	callq  401410 <__printf_chk@plt>
  401f38:	bf 03 00 00 00       	mov    $0x3,%edi
  401f3d:	e8 3d 05 00 00       	callq  40247f <validate>
  401f42:	bf 00 00 00 00       	mov    $0x0,%edi
  401f47:	e8 f4 f3 ff ff       	callq  401340 <exit@plt>
  401f4c:	48 89 da             	mov    %rbx,%rdx
  401f4f:	48 8d 35 a2 13 00 00 	lea    0x13a2(%rip),%rsi        # 4032f8 <_IO_stdin_used+0x2f8>
  401f56:	bf 01 00 00 00       	mov    $0x1,%edi
  401f5b:	b8 00 00 00 00       	mov    $0x0,%eax
  401f60:	e8 ab f4 ff ff       	callq  401410 <__printf_chk@plt>
  401f65:	bf 03 00 00 00       	mov    $0x3,%edi
  401f6a:	e8 e4 05 00 00       	callq  402553 <fail>
  401f6f:	eb d1                	jmp    401f42 <touch3+0x47>

0000000000401f71 <test>:
  401f71:	f3 0f 1e fa          	endbr64 
  401f75:	48 83 ec 08          	sub    $0x8,%rsp
  401f79:	b8 00 00 00 00       	mov    $0x0,%eax
  401f7e:	e8 05 fe ff ff       	callq  401d88 <getbuf>
  401f83:	89 c2                	mov    %eax,%edx
  401f85:	48 8d 35 94 13 00 00 	lea    0x1394(%rip),%rsi        # 403320 <_IO_stdin_used+0x320>
  401f8c:	bf 01 00 00 00       	mov    $0x1,%edi
  401f91:	b8 00 00 00 00       	mov    $0x0,%eax
  401f96:	e8 75 f4 ff ff       	callq  401410 <__printf_chk@plt>
  401f9b:	48 83 c4 08          	add    $0x8,%rsp
  401f9f:	c3                   	retq   

0000000000401fa0 <start_farm>:
  401fa0:	f3 0f 1e fa          	endbr64 
  401fa4:	b8 01 00 00 00       	mov    $0x1,%eax
  401fa9:	c3                   	retq   

0000000000401faa <addval_353>:
  401faa:	f3 0f 1e fa          	endbr64 
  401fae:	8d 87 48 89 c7 c3    	lea    -0x3c3876b8(%rdi),%eax
  401fb4:	c3                   	retq   

0000000000401fb5 <getval_426>:
  401fb5:	f3 0f 1e fa          	endbr64 
  401fb9:	b8 78 90 90 c3       	mov    $0xc3909078,%eax
  401fbe:	c3                   	retq   

0000000000401fbf <addval_373>:
  401fbf:	f3 0f 1e fa          	endbr64 
  401fc3:	8d 87 40 89 c7 c3    	lea    -0x3c3876c0(%rdi),%eax
  401fc9:	c3                   	retq   

0000000000401fca <getval_332>:
  401fca:	f3 0f 1e fa          	endbr64 
  401fce:	b8 09 48 89 c7       	mov    $0xc7894809,%eax
  401fd3:	c3                   	retq   

0000000000401fd4 <addval_188>:
  401fd4:	f3 0f 1e fa          	endbr64 
  401fd8:	8d 87 4c 89 c7 c3    	lea    -0x3c3876b4(%rdi),%eax
  401fde:	c3                   	retq   

0000000000401fdf <addval_484>:
  401fdf:	f3 0f 1e fa          	endbr64 
  401fe3:	8d 87 b0 58 90 c3    	lea    -0x3c6fa750(%rdi),%eax
  401fe9:	c3                   	retq   

0000000000401fea <getval_316>:
  401fea:	f3 0f 1e fa          	endbr64 
  401fee:	b8 69 78 90 c3       	mov    $0xc3907869,%eax
  401ff3:	c3                   	retq   

0000000000401ff4 <setval_299>:
  401ff4:	f3 0f 1e fa          	endbr64 
  401ff8:	c7 07 58 90 90 90    	movl   $0x90909058,(%rdi)
  401ffe:	c3                   	retq   

0000000000401fff <mid_farm>:
  401fff:	f3 0f 1e fa          	endbr64 
  402003:	b8 01 00 00 00       	mov    $0x1,%eax
  402008:	c3                   	retq   

0000000000402009 <add_xy>:
  402009:	f3 0f 1e fa          	endbr64 
  40200d:	48 8d 04 37          	lea    (%rdi,%rsi,1),%rax
  402011:	c3                   	retq   

0000000000402012 <addval_409>:
  402012:	f3 0f 1e fa          	endbr64 
  402016:	8d 87 3d 48 8b e0    	lea    -0x1f74b7c3(%rdi),%eax
  40201c:	c3                   	retq   

000000000040201d <addval_344>:
  40201d:	f3 0f 1e fa          	endbr64 
  402021:	8d 87 47 89 d1 90    	lea    -0x6f2e76b9(%rdi),%eax
  402027:	c3                   	retq   

0000000000402028 <setval_273>:
  402028:	f3 0f 1e fa          	endbr64 
  40202c:	c7 07 89 ce 78 c0    	movl   $0xc078ce89,(%rdi)
  402032:	c3                   	retq   

0000000000402033 <getval_247>:
  402033:	f3 0f 1e fa          	endbr64 
  402037:	b8 88 c2 38 db       	mov    $0xdb38c288,%eax
  40203c:	c3                   	retq   

000000000040203d <setval_464>:
  40203d:	f3 0f 1e fa          	endbr64 
  402041:	c7 07 48 88 e0 90    	movl   $0x90e08848,(%rdi)
  402047:	c3                   	retq   

0000000000402048 <getval_496>:
  402048:	f3 0f 1e fa          	endbr64 
  40204c:	b8 48 99 e0 c3       	mov    $0xc3e09948,%eax
  402051:	c3                   	retq   

0000000000402052 <setval_388>:
  402052:	f3 0f 1e fa          	endbr64 
  402056:	c7 07 58 89 e0 c3    	movl   $0xc3e08958,(%rdi)
  40205c:	c3                   	retq   

000000000040205d <addval_424>:
  40205d:	f3 0f 1e fa          	endbr64 
  402061:	8d 87 89 ce a4 d2    	lea    -0x2d5b3177(%rdi),%eax
  402067:	c3                   	retq   

0000000000402068 <getval_488>:
  402068:	f3 0f 1e fa          	endbr64 
  40206c:	b8 89 c2 94 c0       	mov    $0xc094c289,%eax
  402071:	c3                   	retq   

0000000000402072 <getval_265>:
  402072:	f3 0f 1e fa          	endbr64 
  402076:	b8 31 09 d1 90       	mov    $0x90d10931,%eax
  40207b:	c3                   	retq   

000000000040207c <setval_365>:
  40207c:	f3 0f 1e fa          	endbr64 
  402080:	c7 07 99 d1 38 c9    	movl   $0xc938d199,(%rdi)
  402086:	c3                   	retq   

0000000000402087 <getval_320>:
  402087:	f3 0f 1e fa          	endbr64 
  40208b:	b8 cc 89 c2 92       	mov    $0x92c289cc,%eax
  402090:	c3                   	retq   

0000000000402091 <getval_355>:
  402091:	f3 0f 1e fa          	endbr64 
  402095:	b8 48 89 e0 92       	mov    $0x92e08948,%eax
  40209a:	c3                   	retq   

000000000040209b <setval_380>:
  40209b:	f3 0f 1e fa          	endbr64 
  40209f:	c7 07 4c a6 8d ce    	movl   $0xce8da64c,(%rdi)
  4020a5:	c3                   	retq   

00000000004020a6 <getval_118>:
  4020a6:	f3 0f 1e fa          	endbr64 
  4020aa:	b8 89 ce c4 db       	mov    $0xdbc4ce89,%eax
  4020af:	c3                   	retq   

00000000004020b0 <getval_351>:
  4020b0:	f3 0f 1e fa          	endbr64 
  4020b4:	b8 89 c2 20 c0       	mov    $0xc020c289,%eax
  4020b9:	c3                   	retq   

00000000004020ba <getval_106>:
  4020ba:	f3 0f 1e fa          	endbr64 
  4020be:	b8 89 c2 90 c7       	mov    $0xc790c289,%eax
  4020c3:	c3                   	retq   

00000000004020c4 <getval_412>:
  4020c4:	f3 0f 1e fa          	endbr64 
  4020c8:	b8 89 ce c4 c9       	mov    $0xc9c4ce89,%eax
  4020cd:	c3                   	retq   

00000000004020ce <addval_473>:
  4020ce:	f3 0f 1e fa          	endbr64 
  4020d2:	8d 87 81 d1 08 c9    	lea    -0x36f72e7f(%rdi),%eax
  4020d8:	c3                   	retq   

00000000004020d9 <setval_217>:
  4020d9:	f3 0f 1e fa          	endbr64 
  4020dd:	c7 07 89 ce 84 c0    	movl   $0xc084ce89,(%rdi)
  4020e3:	c3                   	retq   

00000000004020e4 <setval_437>:
  4020e4:	f3 0f 1e fa          	endbr64 
  4020e8:	c7 07 48 89 e0 c3    	movl   $0xc3e08948,(%rdi)
  4020ee:	c3                   	retq   

00000000004020ef <addval_137>:
  4020ef:	f3 0f 1e fa          	endbr64 
  4020f3:	8d 87 89 ce 20 db    	lea    -0x24df3177(%rdi),%eax
  4020f9:	c3                   	retq   

00000000004020fa <getval_446>:
  4020fa:	f3 0f 1e fa          	endbr64 
  4020fe:	b8 d0 8d c2 c3       	mov    $0xc3c28dd0,%eax
  402103:	c3                   	retq   

0000000000402104 <addval_211>:
  402104:	f3 0f 1e fa          	endbr64 
  402108:	8d 87 89 d1 30 c0    	lea    -0x3fcf2e77(%rdi),%eax
  40210e:	c3                   	retq   

000000000040210f <setval_311>:
  40210f:	f3 0f 1e fa          	endbr64 
  402113:	c7 07 4a 48 89 e0    	movl   $0xe089484a,(%rdi)
  402119:	c3                   	retq   

000000000040211a <setval_124>:
  40211a:	f3 0f 1e fa          	endbr64 
  40211e:	c7 07 89 d1 20 db    	movl   $0xdb20d189,(%rdi)
  402124:	c3                   	retq   

0000000000402125 <setval_396>:
  402125:	f3 0f 1e fa          	endbr64 
  402129:	c7 07 88 d1 90 c3    	movl   $0xc390d188,(%rdi)
  40212f:	c3                   	retq   

0000000000402130 <getval_139>:
  402130:	f3 0f 1e fa          	endbr64 
  402134:	b8 89 d1 28 db       	mov    $0xdb28d189,%eax
  402139:	c3                   	retq   

000000000040213a <getval_110>:
  40213a:	f3 0f 1e fa          	endbr64 
  40213e:	b8 09 c2 08 c9       	mov    $0xc908c209,%eax
  402143:	c3                   	retq   

0000000000402144 <addval_476>:
  402144:	f3 0f 1e fa          	endbr64 
  402148:	8d 87 89 ce 28 d2    	lea    -0x2dd73177(%rdi),%eax
  40214e:	c3                   	retq   

000000000040214f <addval_444>:
  40214f:	f3 0f 1e fa          	endbr64 
  402153:	8d 87 89 c2 38 db    	lea    -0x24c73d77(%rdi),%eax
  402159:	c3                   	retq   

000000000040215a <getval_160>:
  40215a:	f3 0f 1e fa          	endbr64 
  40215e:	b8 48 88 e0 c3       	mov    $0xc3e08848,%eax
  402163:	c3                   	retq   

0000000000402164 <end_farm>:
  402164:	f3 0f 1e fa          	endbr64 
  402168:	b8 01 00 00 00       	mov    $0x1,%eax
  40216d:	c3                   	retq   

000000000040216e <save_char>:
  40216e:	8b 05 b0 4f 00 00    	mov    0x4fb0(%rip),%eax        # 407124 <gets_cnt>
  402174:	3d ff 03 00 00       	cmp    $0x3ff,%eax
  402179:	7f 4a                	jg     4021c5 <save_char+0x57>
  40217b:	89 f9                	mov    %edi,%ecx
  40217d:	c0 e9 04             	shr    $0x4,%cl
  402180:	8d 14 40             	lea    (%rax,%rax,2),%edx
  402183:	4c 8d 05 b6 14 00 00 	lea    0x14b6(%rip),%r8        # 403640 <trans_char>
  40218a:	83 e1 0f             	and    $0xf,%ecx
  40218d:	45 0f b6 0c 08       	movzbl (%r8,%rcx,1),%r9d
  402192:	48 8d 0d 87 43 00 00 	lea    0x4387(%rip),%rcx        # 406520 <gets_buf>
  402199:	48 63 f2             	movslq %edx,%rsi
  40219c:	44 88 0c 31          	mov    %r9b,(%rcx,%rsi,1)
  4021a0:	8d 72 01             	lea    0x1(%rdx),%esi
  4021a3:	83 e7 0f             	and    $0xf,%edi
  4021a6:	41 0f b6 3c 38       	movzbl (%r8,%rdi,1),%edi
  4021ab:	48 63 f6             	movslq %esi,%rsi
  4021ae:	40 88 3c 31          	mov    %dil,(%rcx,%rsi,1)
  4021b2:	83 c2 02             	add    $0x2,%edx
  4021b5:	48 63 d2             	movslq %edx,%rdx
  4021b8:	c6 04 11 20          	movb   $0x20,(%rcx,%rdx,1)
  4021bc:	83 c0 01             	add    $0x1,%eax
  4021bf:	89 05 5f 4f 00 00    	mov    %eax,0x4f5f(%rip)        # 407124 <gets_cnt>
  4021c5:	c3                   	retq   

00000000004021c6 <save_term>:
  4021c6:	8b 05 58 4f 00 00    	mov    0x4f58(%rip),%eax        # 407124 <gets_cnt>
  4021cc:	8d 04 40             	lea    (%rax,%rax,2),%eax
  4021cf:	48 98                	cltq   
  4021d1:	48 8d 15 48 43 00 00 	lea    0x4348(%rip),%rdx        # 406520 <gets_buf>
  4021d8:	c6 04 02 00          	movb   $0x0,(%rdx,%rax,1)
  4021dc:	c3                   	retq   

00000000004021dd <check_fail>:
  4021dd:	f3 0f 1e fa          	endbr64 
  4021e1:	50                   	push   %rax
  4021e2:	58                   	pop    %rax
  4021e3:	48 83 ec 08          	sub    $0x8,%rsp
  4021e7:	0f be 15 3a 4f 00 00 	movsbl 0x4f3a(%rip),%edx        # 407128 <target_prefix>
  4021ee:	4c 8d 05 2b 43 00 00 	lea    0x432b(%rip),%r8        # 406520 <gets_buf>
  4021f5:	8b 0d fd 42 00 00    	mov    0x42fd(%rip),%ecx        # 4064f8 <check_level>
  4021fb:	48 8d 35 41 11 00 00 	lea    0x1141(%rip),%rsi        # 403343 <_IO_stdin_used+0x343>
  402202:	bf 01 00 00 00       	mov    $0x1,%edi
  402207:	b8 00 00 00 00       	mov    $0x0,%eax
  40220c:	e8 ff f1 ff ff       	callq  401410 <__printf_chk@plt>
  402211:	bf 01 00 00 00       	mov    $0x1,%edi
  402216:	e8 25 f1 ff ff       	callq  401340 <exit@plt>

000000000040221b <Gets>:
  40221b:	f3 0f 1e fa          	endbr64 
  40221f:	41 54                	push   %r12
  402221:	55                   	push   %rbp
  402222:	53                   	push   %rbx
  402223:	49 89 fc             	mov    %rdi,%r12
  402226:	c7 05 f4 4e 00 00 00 	movl   $0x0,0x4ef4(%rip)        # 407124 <gets_cnt>
  40222d:	00 00 00 
  402230:	48 89 fb             	mov    %rdi,%rbx
  402233:	48 8b 3d b6 42 00 00 	mov    0x42b6(%rip),%rdi        # 4064f0 <infile>
  40223a:	e8 d1 f0 ff ff       	callq  401310 <getc@plt>
  40223f:	83 f8 ff             	cmp    $0xffffffff,%eax
  402242:	74 18                	je     40225c <Gets+0x41>
  402244:	83 f8 0a             	cmp    $0xa,%eax
  402247:	74 13                	je     40225c <Gets+0x41>
  402249:	48 8d 6b 01          	lea    0x1(%rbx),%rbp
  40224d:	88 03                	mov    %al,(%rbx)
  40224f:	0f b6 f8             	movzbl %al,%edi
  402252:	e8 17 ff ff ff       	callq  40216e <save_char>
  402257:	48 89 eb             	mov    %rbp,%rbx
  40225a:	eb d7                	jmp    402233 <Gets+0x18>
  40225c:	c6 03 00             	movb   $0x0,(%rbx)
  40225f:	b8 00 00 00 00       	mov    $0x0,%eax
  402264:	e8 5d ff ff ff       	callq  4021c6 <save_term>
  402269:	4c 89 e0             	mov    %r12,%rax
  40226c:	5b                   	pop    %rbx
  40226d:	5d                   	pop    %rbp
  40226e:	41 5c                	pop    %r12
  402270:	c3                   	retq   

0000000000402271 <notify_server>:
  402271:	f3 0f 1e fa          	endbr64 
  402275:	55                   	push   %rbp
  402276:	53                   	push   %rbx
  402277:	4c 8d 9c 24 00 c0 ff 	lea    -0x4000(%rsp),%r11
  40227e:	ff 
  40227f:	48 81 ec 00 10 00 00 	sub    $0x1000,%rsp
  402286:	48 83 0c 24 00       	orq    $0x0,(%rsp)
  40228b:	4c 39 dc             	cmp    %r11,%rsp
  40228e:	75 ef                	jne    40227f <notify_server+0xe>
  402290:	48 83 ec 18          	sub    $0x18,%rsp
  402294:	64 48 8b 04 25 28 00 	mov    %fs:0x28,%rax
  40229b:	00 00 
  40229d:	48 89 84 24 08 40 00 	mov    %rax,0x4008(%rsp)
  4022a4:	00 
  4022a5:	31 c0                	xor    %eax,%eax
  4022a7:	83 3d 5a 42 00 00 00 	cmpl   $0x0,0x425a(%rip)        # 406508 <is_checker>
  4022ae:	0f 85 17 01 00 00    	jne    4023cb <notify_server+0x15a>
  4022b4:	89 fb                	mov    %edi,%ebx
  4022b6:	81 3d 64 4e 00 00 9c 	cmpl   $0x1f9c,0x4e64(%rip)        # 407124 <gets_cnt>
  4022bd:	1f 00 00 
  4022c0:	7f 18                	jg     4022da <notify_server+0x69>
  4022c2:	0f be 05 5f 4e 00 00 	movsbl 0x4e5f(%rip),%eax        # 407128 <target_prefix>
  4022c9:	83 3d 90 3e 00 00 00 	cmpl   $0x0,0x3e90(%rip)        # 406160 <notify>
  4022d0:	74 23                	je     4022f5 <notify_server+0x84>
  4022d2:	8b 15 28 42 00 00    	mov    0x4228(%rip),%edx        # 406500 <authkey>
  4022d8:	eb 20                	jmp    4022fa <notify_server+0x89>
  4022da:	48 8d 35 97 11 00 00 	lea    0x1197(%rip),%rsi        # 403478 <_IO_stdin_used+0x478>
  4022e1:	bf 01 00 00 00       	mov    $0x1,%edi
  4022e6:	e8 25 f1 ff ff       	callq  401410 <__printf_chk@plt>
  4022eb:	bf 01 00 00 00       	mov    $0x1,%edi
  4022f0:	e8 4b f0 ff ff       	callq  401340 <exit@plt>
  4022f5:	ba ff ff ff ff       	mov    $0xffffffff,%edx
  4022fa:	85 db                	test   %ebx,%ebx
  4022fc:	0f 84 89 00 00 00    	je     40238b <notify_server+0x11a>
  402302:	48 8d 2d 55 10 00 00 	lea    0x1055(%rip),%rbp        # 40335e <_IO_stdin_used+0x35e>
  402309:	48 89 e7             	mov    %rsp,%rdi
  40230c:	48 8d 0d 0d 42 00 00 	lea    0x420d(%rip),%rcx        # 406520 <gets_buf>
  402313:	51                   	push   %rcx
  402314:	56                   	push   %rsi
  402315:	50                   	push   %rax
  402316:	52                   	push   %rdx
  402317:	49 89 e9             	mov    %rbp,%r9
  40231a:	44 8b 05 17 3e 00 00 	mov    0x3e17(%rip),%r8d        # 406138 <target_id>
  402321:	48 8d 0d 3b 10 00 00 	lea    0x103b(%rip),%rcx        # 403363 <_IO_stdin_used+0x363>
  402328:	ba 00 20 00 00       	mov    $0x2000,%edx
  40232d:	be 01 00 00 00       	mov    $0x1,%esi
  402332:	b8 00 00 00 00       	mov    $0x0,%eax
  402337:	e8 04 f1 ff ff       	callq  401440 <__sprintf_chk@plt>
  40233c:	48 83 c4 20          	add    $0x20,%rsp
  402340:	83 3d 19 3e 00 00 00 	cmpl   $0x0,0x3e19(%rip)        # 406160 <notify>
  402347:	0f 84 9f 00 00 00    	je     4023ec <notify_server+0x17b>
  40234d:	85 db                	test   %ebx,%ebx
  40234f:	74 6e                	je     4023bf <notify_server+0x14e>
  402351:	48 8d 8c 24 00 20 00 	lea    0x2000(%rsp),%rcx
  402358:	00 
  402359:	48 89 e6             	mov    %rsp,%rsi
  40235c:	ba 00 00 00 00       	mov    $0x0,%edx
  402361:	48 8b 3d d8 3d 00 00 	mov    0x3dd8(%rip),%rdi        # 406140 <user_id>
  402368:	e8 fb 08 00 00       	callq  402c68 <driver_post>
  40236d:	85 c0                	test   %eax,%eax
  40236f:	78 26                	js     402397 <notify_server+0x126>
  402371:	48 8d 3d 30 11 00 00 	lea    0x1130(%rip),%rdi        # 4034a8 <_IO_stdin_used+0x4a8>
  402378:	e8 83 f0 ff ff       	callq  401400 <puts@plt>
  40237d:	48 8d 3d 07 10 00 00 	lea    0x1007(%rip),%rdi        # 40338b <_IO_stdin_used+0x38b>
  402384:	e8 77 f0 ff ff       	callq  401400 <puts@plt>
  402389:	eb 40                	jmp    4023cb <notify_server+0x15a>
  40238b:	48 8d 2d c7 0f 00 00 	lea    0xfc7(%rip),%rbp        # 403359 <_IO_stdin_used+0x359>
  402392:	e9 72 ff ff ff       	jmpq   402309 <notify_server+0x98>
  402397:	48 8d 94 24 00 20 00 	lea    0x2000(%rsp),%rdx
  40239e:	00 
  40239f:	48 8d 35 d9 0f 00 00 	lea    0xfd9(%rip),%rsi        # 40337f <_IO_stdin_used+0x37f>
  4023a6:	bf 01 00 00 00       	mov    $0x1,%edi
  4023ab:	b8 00 00 00 00       	mov    $0x0,%eax
  4023b0:	e8 5b f0 ff ff       	callq  401410 <__printf_chk@plt>
  4023b5:	bf 01 00 00 00       	mov    $0x1,%edi
  4023ba:	e8 81 ef ff ff       	callq  401340 <exit@plt>
  4023bf:	48 8d 3d cf 0f 00 00 	lea    0xfcf(%rip),%rdi        # 403395 <_IO_stdin_used+0x395>
  4023c6:	e8 35 f0 ff ff       	callq  401400 <puts@plt>
  4023cb:	48 8b 84 24 08 40 00 	mov    0x4008(%rsp),%rax
  4023d2:	00 
  4023d3:	64 48 33 04 25 28 00 	xor    %fs:0x28,%rax
  4023da:	00 00 
  4023dc:	0f 85 98 00 00 00    	jne    40247a <notify_server+0x209>
  4023e2:	48 81 c4 18 40 00 00 	add    $0x4018,%rsp
  4023e9:	5b                   	pop    %rbx
  4023ea:	5d                   	pop    %rbp
  4023eb:	c3                   	retq   
  4023ec:	48 89 ea             	mov    %rbp,%rdx
  4023ef:	48 8d 35 ea 10 00 00 	lea    0x10ea(%rip),%rsi        # 4034e0 <_IO_stdin_used+0x4e0>
  4023f6:	bf 01 00 00 00       	mov    $0x1,%edi
  4023fb:	b8 00 00 00 00       	mov    $0x0,%eax
  402400:	e8 0b f0 ff ff       	callq  401410 <__printf_chk@plt>
  402405:	48 8b 15 34 3d 00 00 	mov    0x3d34(%rip),%rdx        # 406140 <user_id>
  40240c:	48 8d 35 89 0f 00 00 	lea    0xf89(%rip),%rsi        # 40339c <_IO_stdin_used+0x39c>
  402413:	bf 01 00 00 00       	mov    $0x1,%edi
  402418:	b8 00 00 00 00       	mov    $0x0,%eax
  40241d:	e8 ee ef ff ff       	callq  401410 <__printf_chk@plt>
  402422:	48 8b 15 27 3d 00 00 	mov    0x3d27(%rip),%rdx        # 406150 <course>
  402429:	48 8d 35 79 0f 00 00 	lea    0xf79(%rip),%rsi        # 4033a9 <_IO_stdin_used+0x3a9>
  402430:	bf 01 00 00 00       	mov    $0x1,%edi
  402435:	b8 00 00 00 00       	mov    $0x0,%eax
  40243a:	e8 d1 ef ff ff       	callq  401410 <__printf_chk@plt>
  40243f:	48 8b 15 02 3d 00 00 	mov    0x3d02(%rip),%rdx        # 406148 <lab>
  402446:	48 8d 35 68 0f 00 00 	lea    0xf68(%rip),%rsi        # 4033b5 <_IO_stdin_used+0x3b5>
  40244d:	bf 01 00 00 00       	mov    $0x1,%edi
  402452:	b8 00 00 00 00       	mov    $0x0,%eax
  402457:	e8 b4 ef ff ff       	callq  401410 <__printf_chk@plt>
  40245c:	48 89 e2             	mov    %rsp,%rdx
  40245f:	48 8d 35 58 0f 00 00 	lea    0xf58(%rip),%rsi        # 4033be <_IO_stdin_used+0x3be>
  402466:	bf 01 00 00 00       	mov    $0x1,%edi
  40246b:	b8 00 00 00 00       	mov    $0x0,%eax
  402470:	e8 9b ef ff ff       	callq  401410 <__printf_chk@plt>
  402475:	e9 51 ff ff ff       	jmpq   4023cb <notify_server+0x15a>
  40247a:	e8 61 ee ff ff       	callq  4012e0 <__stack_chk_fail@plt>

000000000040247f <validate>:
  40247f:	f3 0f 1e fa          	endbr64 
  402483:	53                   	push   %rbx
  402484:	89 fb                	mov    %edi,%ebx
  402486:	83 3d 7b 40 00 00 00 	cmpl   $0x0,0x407b(%rip)        # 406508 <is_checker>
  40248d:	74 72                	je     402501 <validate+0x82>
  40248f:	39 3d 67 40 00 00    	cmp    %edi,0x4067(%rip)        # 4064fc <vlevel>
  402495:	75 32                	jne    4024c9 <validate+0x4a>
  402497:	8b 15 5b 40 00 00    	mov    0x405b(%rip),%edx        # 4064f8 <check_level>
  40249d:	39 fa                	cmp    %edi,%edx
  40249f:	75 3e                	jne    4024df <validate+0x60>
  4024a1:	0f be 15 80 4c 00 00 	movsbl 0x4c80(%rip),%edx        # 407128 <target_prefix>
  4024a8:	4c 8d 05 71 40 00 00 	lea    0x4071(%rip),%r8        # 406520 <gets_buf>
  4024af:	89 f9                	mov    %edi,%ecx
  4024b1:	48 8d 35 30 0f 00 00 	lea    0xf30(%rip),%rsi        # 4033e8 <_IO_stdin_used+0x3e8>
  4024b8:	bf 01 00 00 00       	mov    $0x1,%edi
  4024bd:	b8 00 00 00 00       	mov    $0x0,%eax
  4024c2:	e8 49 ef ff ff       	callq  401410 <__printf_chk@plt>
  4024c7:	5b                   	pop    %rbx
  4024c8:	c3                   	retq   
  4024c9:	48 8d 3d fa 0e 00 00 	lea    0xefa(%rip),%rdi        # 4033ca <_IO_stdin_used+0x3ca>
  4024d0:	e8 2b ef ff ff       	callq  401400 <puts@plt>
  4024d5:	b8 00 00 00 00       	mov    $0x0,%eax
  4024da:	e8 fe fc ff ff       	callq  4021dd <check_fail>
  4024df:	89 f9                	mov    %edi,%ecx
  4024e1:	48 8d 35 20 10 00 00 	lea    0x1020(%rip),%rsi        # 403508 <_IO_stdin_used+0x508>
  4024e8:	bf 01 00 00 00       	mov    $0x1,%edi
  4024ed:	b8 00 00 00 00       	mov    $0x0,%eax
  4024f2:	e8 19 ef ff ff       	callq  401410 <__printf_chk@plt>
  4024f7:	b8 00 00 00 00       	mov    $0x0,%eax
  4024fc:	e8 dc fc ff ff       	callq  4021dd <check_fail>
  402501:	39 3d f5 3f 00 00    	cmp    %edi,0x3ff5(%rip)        # 4064fc <vlevel>
  402507:	74 1a                	je     402523 <validate+0xa4>
  402509:	48 8d 3d ba 0e 00 00 	lea    0xeba(%rip),%rdi        # 4033ca <_IO_stdin_used+0x3ca>
  402510:	e8 eb ee ff ff       	callq  401400 <puts@plt>
  402515:	89 de                	mov    %ebx,%esi
  402517:	bf 00 00 00 00       	mov    $0x0,%edi
  40251c:	e8 50 fd ff ff       	callq  402271 <notify_server>
  402521:	eb a4                	jmp    4024c7 <validate+0x48>
  402523:	0f be 0d fe 4b 00 00 	movsbl 0x4bfe(%rip),%ecx        # 407128 <target_prefix>
  40252a:	89 fa                	mov    %edi,%edx
  40252c:	48 8d 35 fd 0f 00 00 	lea    0xffd(%rip),%rsi        # 403530 <_IO_stdin_used+0x530>
  402533:	bf 01 00 00 00       	mov    $0x1,%edi
  402538:	b8 00 00 00 00       	mov    $0x0,%eax
  40253d:	e8 ce ee ff ff       	callq  401410 <__printf_chk@plt>
  402542:	89 de                	mov    %ebx,%esi
  402544:	bf 01 00 00 00       	mov    $0x1,%edi
  402549:	e8 23 fd ff ff       	callq  402271 <notify_server>
  40254e:	e9 74 ff ff ff       	jmpq   4024c7 <validate+0x48>

0000000000402553 <fail>:
  402553:	f3 0f 1e fa          	endbr64 
  402557:	48 83 ec 08          	sub    $0x8,%rsp
  40255b:	83 3d a6 3f 00 00 00 	cmpl   $0x0,0x3fa6(%rip)        # 406508 <is_checker>
  402562:	75 11                	jne    402575 <fail+0x22>
  402564:	89 fe                	mov    %edi,%esi
  402566:	bf 00 00 00 00       	mov    $0x0,%edi
  40256b:	e8 01 fd ff ff       	callq  402271 <notify_server>
  402570:	48 83 c4 08          	add    $0x8,%rsp
  402574:	c3                   	retq   
  402575:	b8 00 00 00 00       	mov    $0x0,%eax
  40257a:	e8 5e fc ff ff       	callq  4021dd <check_fail>

000000000040257f <bushandler>:
  40257f:	f3 0f 1e fa          	endbr64 
  402583:	50                   	push   %rax
  402584:	58                   	pop    %rax
  402585:	48 83 ec 08          	sub    $0x8,%rsp
  402589:	83 3d 78 3f 00 00 00 	cmpl   $0x0,0x3f78(%rip)        # 406508 <is_checker>
  402590:	74 16                	je     4025a8 <bushandler+0x29>
  402592:	48 8d 3d 64 0e 00 00 	lea    0xe64(%rip),%rdi        # 4033fd <_IO_stdin_used+0x3fd>
  402599:	e8 62 ee ff ff       	callq  401400 <puts@plt>
  40259e:	b8 00 00 00 00       	mov    $0x0,%eax
  4025a3:	e8 35 fc ff ff       	callq  4021dd <check_fail>
  4025a8:	48 8d 3d b9 0f 00 00 	lea    0xfb9(%rip),%rdi        # 403568 <_IO_stdin_used+0x568>
  4025af:	e8 4c ee ff ff       	callq  401400 <puts@plt>
  4025b4:	48 8d 3d 4c 0e 00 00 	lea    0xe4c(%rip),%rdi        # 403407 <_IO_stdin_used+0x407>
  4025bb:	e8 40 ee ff ff       	callq  401400 <puts@plt>
  4025c0:	be 00 00 00 00       	mov    $0x0,%esi
  4025c5:	bf 00 00 00 00       	mov    $0x0,%edi
  4025ca:	e8 a2 fc ff ff       	callq  402271 <notify_server>
  4025cf:	bf 01 00 00 00       	mov    $0x1,%edi
  4025d4:	e8 67 ed ff ff       	callq  401340 <exit@plt>

00000000004025d9 <seghandler>:
  4025d9:	f3 0f 1e fa          	endbr64 
  4025dd:	50                   	push   %rax
  4025de:	58                   	pop    %rax
  4025df:	48 83 ec 08          	sub    $0x8,%rsp
  4025e3:	83 3d 1e 3f 00 00 00 	cmpl   $0x0,0x3f1e(%rip)        # 406508 <is_checker>
  4025ea:	74 16                	je     402602 <seghandler+0x29>
  4025ec:	48 8d 3d 2a 0e 00 00 	lea    0xe2a(%rip),%rdi        # 40341d <_IO_stdin_used+0x41d>
  4025f3:	e8 08 ee ff ff       	callq  401400 <puts@plt>
  4025f8:	b8 00 00 00 00       	mov    $0x0,%eax
  4025fd:	e8 db fb ff ff       	callq  4021dd <check_fail>
  402602:	48 8d 3d 7f 0f 00 00 	lea    0xf7f(%rip),%rdi        # 403588 <_IO_stdin_used+0x588>
  402609:	e8 f2 ed ff ff       	callq  401400 <puts@plt>
  40260e:	48 8d 3d f2 0d 00 00 	lea    0xdf2(%rip),%rdi        # 403407 <_IO_stdin_used+0x407>
  402615:	e8 e6 ed ff ff       	callq  401400 <puts@plt>
  40261a:	be 00 00 00 00       	mov    $0x0,%esi
  40261f:	bf 00 00 00 00       	mov    $0x0,%edi
  402624:	e8 48 fc ff ff       	callq  402271 <notify_server>
  402629:	bf 01 00 00 00       	mov    $0x1,%edi
  40262e:	e8 0d ed ff ff       	callq  401340 <exit@plt>

0000000000402633 <illegalhandler>:
  402633:	f3 0f 1e fa          	endbr64 
  402637:	50                   	push   %rax
  402638:	58                   	pop    %rax
  402639:	48 83 ec 08          	sub    $0x8,%rsp
  40263d:	83 3d c4 3e 00 00 00 	cmpl   $0x0,0x3ec4(%rip)        # 406508 <is_checker>
  402644:	74 16                	je     40265c <illegalhandler+0x29>
  402646:	48 8d 3d e3 0d 00 00 	lea    0xde3(%rip),%rdi        # 403430 <_IO_stdin_used+0x430>
  40264d:	e8 ae ed ff ff       	callq  401400 <puts@plt>
  402652:	b8 00 00 00 00       	mov    $0x0,%eax
  402657:	e8 81 fb ff ff       	callq  4021dd <check_fail>
  40265c:	48 8d 3d 4d 0f 00 00 	lea    0xf4d(%rip),%rdi        # 4035b0 <_IO_stdin_used+0x5b0>
  402663:	e8 98 ed ff ff       	callq  401400 <puts@plt>
  402668:	48 8d 3d 98 0d 00 00 	lea    0xd98(%rip),%rdi        # 403407 <_IO_stdin_used+0x407>
  40266f:	e8 8c ed ff ff       	callq  401400 <puts@plt>
  402674:	be 00 00 00 00       	mov    $0x0,%esi
  402679:	bf 00 00 00 00       	mov    $0x0,%edi
  40267e:	e8 ee fb ff ff       	callq  402271 <notify_server>
  402683:	bf 01 00 00 00       	mov    $0x1,%edi
  402688:	e8 b3 ec ff ff       	callq  401340 <exit@plt>

000000000040268d <sigalrmhandler>:
  40268d:	f3 0f 1e fa          	endbr64 
  402691:	50                   	push   %rax
  402692:	58                   	pop    %rax
  402693:	48 83 ec 08          	sub    $0x8,%rsp
  402697:	83 3d 6a 3e 00 00 00 	cmpl   $0x0,0x3e6a(%rip)        # 406508 <is_checker>
  40269e:	74 16                	je     4026b6 <sigalrmhandler+0x29>
  4026a0:	48 8d 3d 9d 0d 00 00 	lea    0xd9d(%rip),%rdi        # 403444 <_IO_stdin_used+0x444>
  4026a7:	e8 54 ed ff ff       	callq  401400 <puts@plt>
  4026ac:	b8 00 00 00 00       	mov    $0x0,%eax
  4026b1:	e8 27 fb ff ff       	callq  4021dd <check_fail>
  4026b6:	ba 05 00 00 00       	mov    $0x5,%edx
  4026bb:	48 8d 35 1e 0f 00 00 	lea    0xf1e(%rip),%rsi        # 4035e0 <_IO_stdin_used+0x5e0>
  4026c2:	bf 01 00 00 00       	mov    $0x1,%edi
  4026c7:	b8 00 00 00 00       	mov    $0x0,%eax
  4026cc:	e8 3f ed ff ff       	callq  401410 <__printf_chk@plt>
  4026d1:	be 00 00 00 00       	mov    $0x0,%esi
  4026d6:	bf 00 00 00 00       	mov    $0x0,%edi
  4026db:	e8 91 fb ff ff       	callq  402271 <notify_server>
  4026e0:	bf 01 00 00 00       	mov    $0x1,%edi
  4026e5:	e8 56 ec ff ff       	callq  401340 <exit@plt>

00000000004026ea <launch>:
  4026ea:	f3 0f 1e fa          	endbr64 
  4026ee:	55                   	push   %rbp
  4026ef:	48 89 e5             	mov    %rsp,%rbp
  4026f2:	48 83 ec 10          	sub    $0x10,%rsp
  4026f6:	48 89 fa             	mov    %rdi,%rdx
  4026f9:	64 48 8b 04 25 28 00 	mov    %fs:0x28,%rax
  402700:	00 00 
  402702:	48 89 45 f8          	mov    %rax,-0x8(%rbp)
  402706:	31 c0                	xor    %eax,%eax
  402708:	48 8d 47 17          	lea    0x17(%rdi),%rax
  40270c:	48 89 c1             	mov    %rax,%rcx
  40270f:	48 83 e1 f0          	and    $0xfffffffffffffff0,%rcx
  402713:	48 25 00 f0 ff ff    	and    $0xfffffffffffff000,%rax
  402719:	48 89 e6             	mov    %rsp,%rsi
  40271c:	48 29 c6             	sub    %rax,%rsi
  40271f:	48 89 f0             	mov    %rsi,%rax
  402722:	48 39 c4             	cmp    %rax,%rsp
  402725:	74 12                	je     402739 <launch+0x4f>
  402727:	48 81 ec 00 10 00 00 	sub    $0x1000,%rsp
  40272e:	48 83 8c 24 f8 0f 00 	orq    $0x0,0xff8(%rsp)
  402735:	00 00 
  402737:	eb e9                	jmp    402722 <launch+0x38>
  402739:	48 89 c8             	mov    %rcx,%rax
  40273c:	25 ff 0f 00 00       	and    $0xfff,%eax
  402741:	48 29 c4             	sub    %rax,%rsp
  402744:	48 85 c0             	test   %rax,%rax
  402747:	74 06                	je     40274f <launch+0x65>
  402749:	48 83 4c 04 f8 00    	orq    $0x0,-0x8(%rsp,%rax,1)
  40274f:	48 8d 7c 24 0f       	lea    0xf(%rsp),%rdi
  402754:	48 83 e7 f0          	and    $0xfffffffffffffff0,%rdi
  402758:	be f4 00 00 00       	mov    $0xf4,%esi
  40275d:	e8 8e eb ff ff       	callq  4012f0 <memset@plt>
  402762:	48 8b 05 47 3a 00 00 	mov    0x3a47(%rip),%rax        # 4061b0 <stdin@@GLIBC_2.2.5>
  402769:	48 39 05 80 3d 00 00 	cmp    %rax,0x3d80(%rip)        # 4064f0 <infile>
  402770:	74 3a                	je     4027ac <launch+0xc2>
  402772:	c7 05 80 3d 00 00 00 	movl   $0x0,0x3d80(%rip)        # 4064fc <vlevel>
  402779:	00 00 00 
  40277c:	b8 00 00 00 00       	mov    $0x0,%eax
  402781:	e8 eb f7 ff ff       	callq  401f71 <test>
  402786:	83 3d 7b 3d 00 00 00 	cmpl   $0x0,0x3d7b(%rip)        # 406508 <is_checker>
  40278d:	75 35                	jne    4027c4 <launch+0xda>
  40278f:	48 8d 3d ce 0c 00 00 	lea    0xcce(%rip),%rdi        # 403464 <_IO_stdin_used+0x464>
  402796:	e8 65 ec ff ff       	callq  401400 <puts@plt>
  40279b:	48 8b 45 f8          	mov    -0x8(%rbp),%rax
  40279f:	64 48 33 04 25 28 00 	xor    %fs:0x28,%rax
  4027a6:	00 00 
  4027a8:	75 30                	jne    4027da <launch+0xf0>
  4027aa:	c9                   	leaveq 
  4027ab:	c3                   	retq   
  4027ac:	48 8d 35 99 0c 00 00 	lea    0xc99(%rip),%rsi        # 40344c <_IO_stdin_used+0x44c>
  4027b3:	bf 01 00 00 00       	mov    $0x1,%edi
  4027b8:	b8 00 00 00 00       	mov    $0x0,%eax
  4027bd:	e8 4e ec ff ff       	callq  401410 <__printf_chk@plt>
  4027c2:	eb ae                	jmp    402772 <launch+0x88>
  4027c4:	48 8d 3d 8e 0c 00 00 	lea    0xc8e(%rip),%rdi        # 403459 <_IO_stdin_used+0x459>
  4027cb:	e8 30 ec ff ff       	callq  401400 <puts@plt>
  4027d0:	b8 00 00 00 00       	mov    $0x0,%eax
  4027d5:	e8 03 fa ff ff       	callq  4021dd <check_fail>
  4027da:	e8 01 eb ff ff       	callq  4012e0 <__stack_chk_fail@plt>

00000000004027df <stable_launch>:
  4027df:	f3 0f 1e fa          	endbr64 
  4027e3:	53                   	push   %rbx
  4027e4:	48 89 3d fd 3c 00 00 	mov    %rdi,0x3cfd(%rip)        # 4064e8 <global_offset>
  4027eb:	41 b9 00 00 00 00    	mov    $0x0,%r9d
  4027f1:	41 b8 00 00 00 00    	mov    $0x0,%r8d
  4027f7:	b9 32 01 00 00       	mov    $0x132,%ecx
  4027fc:	ba 07 00 00 00       	mov    $0x7,%edx
  402801:	be 00 00 10 00       	mov    $0x100000,%esi
  402806:	bf 00 60 58 55       	mov    $0x55586000,%edi
  40280b:	e8 d0 eb ff ff       	callq  4013e0 <mmap@plt>
  402810:	48 89 c3             	mov    %rax,%rbx
  402813:	48 3d 00 60 58 55    	cmp    $0x55586000,%rax
  402819:	75 43                	jne    40285e <stable_launch+0x7f>
  40281b:	48 8d 90 f8 ff 0f 00 	lea    0xffff8(%rax),%rdx
  402822:	48 89 15 07 49 00 00 	mov    %rdx,0x4907(%rip)        # 407130 <stack_top>
  402829:	48 89 e0             	mov    %rsp,%rax
  40282c:	48 89 d4             	mov    %rdx,%rsp
  40282f:	48 89 c2             	mov    %rax,%rdx
  402832:	48 89 15 a7 3c 00 00 	mov    %rdx,0x3ca7(%rip)        # 4064e0 <global_save_stack>
  402839:	48 8b 3d a8 3c 00 00 	mov    0x3ca8(%rip),%rdi        # 4064e8 <global_offset>
  402840:	e8 a5 fe ff ff       	callq  4026ea <launch>
  402845:	48 8b 05 94 3c 00 00 	mov    0x3c94(%rip),%rax        # 4064e0 <global_save_stack>
  40284c:	48 89 c4             	mov    %rax,%rsp
  40284f:	be 00 00 10 00       	mov    $0x100000,%esi
  402854:	48 89 df             	mov    %rbx,%rdi
  402857:	e8 d4 ea ff ff       	callq  401330 <munmap@plt>
  40285c:	5b                   	pop    %rbx
  40285d:	c3                   	retq   
  40285e:	be 00 00 10 00       	mov    $0x100000,%esi
  402863:	48 89 c7             	mov    %rax,%rdi
  402866:	e8 c5 ea ff ff       	callq  401330 <munmap@plt>
  40286b:	b9 00 60 58 55       	mov    $0x55586000,%ecx
  402870:	48 8d 15 a1 0d 00 00 	lea    0xda1(%rip),%rdx        # 403618 <_IO_stdin_used+0x618>
  402877:	be 01 00 00 00       	mov    $0x1,%esi
  40287c:	48 8b 3d 1d 39 00 00 	mov    0x391d(%rip),%rdi        # 4061a0 <stderr@@GLIBC_2.2.5>
  402883:	b8 00 00 00 00       	mov    $0x0,%eax
  402888:	e8 33 ea ff ff       	callq  4012c0 <__fprintf_chk@plt>
  40288d:	bf 01 00 00 00       	mov    $0x1,%edi
  402892:	e8 a9 ea ff ff       	callq  401340 <exit@plt>

0000000000402897 <sigalrm_handler>:
  402897:	f3 0f 1e fa          	endbr64 
  40289b:	50                   	push   %rax
  40289c:	58                   	pop    %rax
  40289d:	48 83 ec 08          	sub    $0x8,%rsp
  4028a1:	b9 00 00 00 00       	mov    $0x0,%ecx
  4028a6:	48 8d 15 a3 0d 00 00 	lea    0xda3(%rip),%rdx        # 403650 <trans_char+0x10>
  4028ad:	be 01 00 00 00       	mov    $0x1,%esi
  4028b2:	48 8b 3d e7 38 00 00 	mov    0x38e7(%rip),%rdi        # 4061a0 <stderr@@GLIBC_2.2.5>
  4028b9:	b8 00 00 00 00       	mov    $0x0,%eax
  4028be:	e8 fd e9 ff ff       	callq  4012c0 <__fprintf_chk@plt>
  4028c3:	bf 01 00 00 00       	mov    $0x1,%edi
  4028c8:	e8 73 ea ff ff       	callq  401340 <exit@plt>

00000000004028cd <WriteMemoryCallback>:
  4028cd:	f3 0f 1e fa          	endbr64 
  4028d1:	41 54                	push   %r12
  4028d3:	55                   	push   %rbp
  4028d4:	53                   	push   %rbx
  4028d5:	49 89 fc             	mov    %rdi,%r12
  4028d8:	48 89 cb             	mov    %rcx,%rbx
  4028db:	48 0f af f2          	imul   %rdx,%rsi
  4028df:	48 89 f5             	mov    %rsi,%rbp
  4028e2:	48 03 71 08          	add    0x8(%rcx),%rsi
  4028e6:	48 8b 39             	mov    (%rcx),%rdi
  4028e9:	48 83 c6 01          	add    $0x1,%rsi
  4028ed:	e8 7e e9 ff ff       	callq  401270 <realloc@plt>
  4028f2:	48 85 c0             	test   %rax,%rax
  4028f5:	74 2e                	je     402925 <WriteMemoryCallback+0x58>
  4028f7:	48 89 03             	mov    %rax,(%rbx)
  4028fa:	48 03 43 08          	add    0x8(%rbx),%rax
  4028fe:	48 89 c7             	mov    %rax,%rdi
  402901:	48 89 ea             	mov    %rbp,%rdx
  402904:	4c 89 e6             	mov    %r12,%rsi
  402907:	e8 54 e9 ff ff       	callq  401260 <memcpy@plt>
  40290c:	48 89 e8             	mov    %rbp,%rax
  40290f:	48 03 43 08          	add    0x8(%rbx),%rax
  402913:	48 89 43 08          	mov    %rax,0x8(%rbx)
  402917:	48 03 03             	add    (%rbx),%rax
  40291a:	c6 00 00             	movb   $0x0,(%rax)
  40291d:	48 89 e8             	mov    %rbp,%rax
  402920:	5b                   	pop    %rbx
  402921:	5d                   	pop    %rbp
  402922:	41 5c                	pop    %r12
  402924:	c3                   	retq   
  402925:	48 8d 3d 4c 0d 00 00 	lea    0xd4c(%rip),%rdi        # 403678 <trans_char+0x38>
  40292c:	e8 cf ea ff ff       	callq  401400 <puts@plt>
  402931:	bd 00 00 00 00       	mov    $0x0,%ebp
  402936:	eb e5                	jmp    40291d <WriteMemoryCallback+0x50>

0000000000402938 <submitr>:
  402938:	f3 0f 1e fa          	endbr64 
  40293c:	41 57                	push   %r15
  40293e:	41 56                	push   %r14
  402940:	41 55                	push   %r13
  402942:	41 54                	push   %r12
  402944:	55                   	push   %rbp
  402945:	53                   	push   %rbx
  402946:	48 83 ec 28          	sub    $0x28,%rsp
  40294a:	49 89 fc             	mov    %rdi,%r12
  40294d:	48 89 f5             	mov    %rsi,%rbp
  402950:	49 89 d5             	mov    %rdx,%r13
  402953:	64 48 8b 04 25 28 00 	mov    %fs:0x28,%rax
  40295a:	00 00 
  40295c:	48 89 44 24 18       	mov    %rax,0x18(%rsp)
  402961:	31 c0                	xor    %eax,%eax
  402963:	bf 03 00 00 00       	mov    $0x3,%edi
  402968:	e8 33 e9 ff ff       	callq  4012a0 <curl_global_init@plt>
  40296d:	e8 7e ea ff ff       	callq  4013f0 <curl_easy_init@plt>
  402972:	48 89 c3             	mov    %rax,%rbx
  402975:	bf 01 00 00 00       	mov    $0x1,%edi
  40297a:	e8 31 ea ff ff       	callq  4013b0 <malloc@plt>
  40297f:	48 89 04 24          	mov    %rax,(%rsp)
  402983:	48 c7 44 24 08 00 00 	movq   $0x0,0x8(%rsp)
  40298a:	00 00 
  40298c:	ba 00 00 00 00       	mov    $0x0,%edx
  402991:	4c 89 e6             	mov    %r12,%rsi
  402994:	48 89 df             	mov    %rbx,%rdi
  402997:	e8 c4 e9 ff ff       	callq  401360 <curl_easy_escape@plt>
  40299c:	49 89 c4             	mov    %rax,%r12
  40299f:	ba 00 00 00 00       	mov    $0x0,%edx
  4029a4:	48 89 ee             	mov    %rbp,%rsi
  4029a7:	48 89 df             	mov    %rbx,%rdi
  4029aa:	e8 b1 e9 ff ff       	callq  401360 <curl_easy_escape@plt>
  4029af:	48 89 c5             	mov    %rax,%rbp
  4029b2:	4d 85 e4             	test   %r12,%r12
  4029b5:	0f 95 c0             	setne  %al
  4029b8:	48 85 ed             	test   %rbp,%rbp
  4029bb:	0f 95 c2             	setne  %dl
  4029be:	84 c2                	test   %al,%dl
  4029c0:	0f 84 bb 01 00 00    	je     402b81 <submitr+0x249>
  4029c6:	48 c7 c6 ff ff ff ff 	mov    $0xffffffffffffffff,%rsi
  4029cd:	b8 00 00 00 00       	mov    $0x0,%eax
  4029d2:	48 89 f1             	mov    %rsi,%rcx
  4029d5:	4c 89 e7             	mov    %r12,%rdi
  4029d8:	f2 ae                	repnz scas %es:(%rdi),%al
  4029da:	48 f7 d1             	not    %rcx
  4029dd:	48 89 ca             	mov    %rcx,%rdx
  4029e0:	48 89 f1             	mov    %rsi,%rcx
  4029e3:	48 89 ef             	mov    %rbp,%rdi
  4029e6:	f2 ae                	repnz scas %es:(%rdi),%al
  4029e8:	48 89 c8             	mov    %rcx,%rax
  4029eb:	48 f7 d0             	not    %rax
  4029ee:	4c 8d 7c 02 58       	lea    0x58(%rdx,%rax,1),%r15
  4029f3:	4c 89 ff             	mov    %r15,%rdi
  4029f6:	e8 b5 e9 ff ff       	callq  4013b0 <malloc@plt>
  4029fb:	49 89 c6             	mov    %rax,%r14
  4029fe:	55                   	push   %rbp
  4029ff:	41 54                	push   %r12
  402a01:	4c 8d 0d a0 0c 00 00 	lea    0xca0(%rip),%r9        # 4036a8 <trans_char+0x68>
  402a08:	4c 8d 05 d9 0c 00 00 	lea    0xcd9(%rip),%r8        # 4036e8 <trans_char+0xa8>
  402a0f:	48 c7 c1 ff ff ff ff 	mov    $0xffffffffffffffff,%rcx
  402a16:	ba 01 00 00 00       	mov    $0x1,%edx
  402a1b:	4c 89 fe             	mov    %r15,%rsi
  402a1e:	48 89 c7             	mov    %rax,%rdi
  402a21:	b8 00 00 00 00       	mov    $0x0,%eax
  402a26:	e8 35 ea ff ff       	callq  401460 <__snprintf_chk@plt>
  402a2b:	4c 89 f2             	mov    %r14,%rdx
  402a2e:	be 12 27 00 00       	mov    $0x2712,%esi
  402a33:	48 89 df             	mov    %rbx,%rdi
  402a36:	b8 00 00 00 00       	mov    $0x0,%eax
  402a3b:	e8 60 e9 ff ff       	callq  4013a0 <curl_easy_setopt@plt>
  402a40:	4c 89 f7             	mov    %r14,%rdi
  402a43:	e8 48 e8 ff ff       	callq  401290 <free@plt>
  402a48:	48 8d 15 7e fe ff ff 	lea    -0x182(%rip),%rdx        # 4028cd <WriteMemoryCallback>
  402a4f:	be 2b 4e 00 00       	mov    $0x4e2b,%esi
  402a54:	48 89 df             	mov    %rbx,%rdi
  402a57:	b8 00 00 00 00       	mov    $0x0,%eax
  402a5c:	e8 3f e9 ff ff       	callq  4013a0 <curl_easy_setopt@plt>
  402a61:	48 8d 54 24 10       	lea    0x10(%rsp),%rdx
  402a66:	be 11 27 00 00       	mov    $0x2711,%esi
  402a6b:	48 89 df             	mov    %rbx,%rdi
  402a6e:	b8 00 00 00 00       	mov    $0x0,%eax
  402a73:	e8 28 e9 ff ff       	callq  4013a0 <curl_easy_setopt@plt>
  402a78:	48 8d 15 b6 0c 00 00 	lea    0xcb6(%rip),%rdx        # 403735 <trans_char+0xf5>
  402a7f:	be 22 27 00 00       	mov    $0x2722,%esi
  402a84:	48 89 df             	mov    %rbx,%rdi
  402a87:	b8 00 00 00 00       	mov    $0x0,%eax
  402a8c:	e8 0f e9 ff ff       	callq  4013a0 <curl_easy_setopt@plt>
  402a91:	48 89 df             	mov    %rbx,%rdi
  402a94:	e8 b7 e8 ff ff       	callq  401350 <curl_easy_perform@plt>
  402a99:	48 83 c4 10          	add    $0x10,%rsp
  402a9d:	85 c0                	test   %eax,%eax
  402a9f:	75 76                	jne    402b17 <submitr+0x1df>
  402aa1:	4c 8b 0c 24          	mov    (%rsp),%r9
  402aa5:	b9 03 00 00 00       	mov    $0x3,%ecx
  402aaa:	48 8d 35 95 0c 00 00 	lea    0xc95(%rip),%rsi        # 403746 <trans_char+0x106>
  402ab1:	4c 89 cf             	mov    %r9,%rdi
  402ab4:	f3 a6                	repz cmpsb %es:(%rdi),%ds:(%rsi)
  402ab6:	41 0f 97 c6          	seta   %r14b
  402aba:	41 80 de 00          	sbb    $0x0,%r14b
  402abe:	45 0f be f6          	movsbl %r14b,%r14d
  402ac2:	45 85 f6             	test   %r14d,%r14d
  402ac5:	0f 85 86 00 00 00    	jne    402b51 <submitr+0x219>
  402acb:	4c 89 e7             	mov    %r12,%rdi
  402ace:	e8 7d e7 ff ff       	callq  401250 <curl_free@plt>
  402ad3:	48 89 ef             	mov    %rbp,%rdi
  402ad6:	e8 75 e7 ff ff       	callq  401250 <curl_free@plt>
  402adb:	48 8b 3c 24          	mov    (%rsp),%rdi
  402adf:	e8 ac e7 ff ff       	callq  401290 <free@plt>
  402ae4:	48 89 df             	mov    %rbx,%rdi
  402ae7:	e8 94 e7 ff ff       	callq  401280 <curl_easy_cleanup@plt>
  402aec:	e8 cf e8 ff ff       	callq  4013c0 <curl_global_cleanup@plt>
  402af1:	48 8b 44 24 18       	mov    0x18(%rsp),%rax
  402af6:	64 48 33 04 25 28 00 	xor    %fs:0x28,%rax
  402afd:	00 00 
  402aff:	0f 85 ea 00 00 00    	jne    402bef <submitr+0x2b7>
  402b05:	44 89 f0             	mov    %r14d,%eax
  402b08:	48 83 c4 28          	add    $0x28,%rsp
  402b0c:	5b                   	pop    %rbx
  402b0d:	5d                   	pop    %rbp
  402b0e:	41 5c                	pop    %r12
  402b10:	41 5d                	pop    %r13
  402b12:	41 5e                	pop    %r14
  402b14:	41 5f                	pop    %r15
  402b16:	c3                   	retq   
  402b17:	89 c7                	mov    %eax,%edi
  402b19:	e8 02 e8 ff ff       	callq  401320 <curl_easy_strerror@plt>
  402b1e:	49 89 c1             	mov    %rax,%r9
  402b21:	4c 8d 05 e8 0b 00 00 	lea    0xbe8(%rip),%r8        # 403710 <trans_char+0xd0>
  402b28:	48 c7 c1 ff ff ff ff 	mov    $0xffffffffffffffff,%rcx
  402b2f:	ba 01 00 00 00       	mov    $0x1,%edx
  402b34:	be 00 20 00 00       	mov    $0x2000,%esi
  402b39:	4c 89 ef             	mov    %r13,%rdi
  402b3c:	b8 00 00 00 00       	mov    $0x0,%eax
  402b41:	e8 1a e9 ff ff       	callq  401460 <__snprintf_chk@plt>
  402b46:	41 be ff ff ff ff    	mov    $0xffffffff,%r14d
  402b4c:	e9 7a ff ff ff       	jmpq   402acb <submitr+0x193>
  402b51:	4c 8d 05 b8 0b 00 00 	lea    0xbb8(%rip),%r8        # 403710 <trans_char+0xd0>
  402b58:	48 c7 c1 ff ff ff ff 	mov    $0xffffffffffffffff,%rcx
  402b5f:	ba 01 00 00 00       	mov    $0x1,%edx
  402b64:	be 00 20 00 00       	mov    $0x2000,%esi
  402b69:	4c 89 ef             	mov    %r13,%rdi
  402b6c:	b8 00 00 00 00       	mov    $0x0,%eax
  402b71:	e8 ea e8 ff ff       	callq  401460 <__snprintf_chk@plt>
  402b76:	41 be ff ff ff ff    	mov    $0xffffffff,%r14d
  402b7c:	e9 4a ff ff ff       	jmpq   402acb <submitr+0x193>
  402b81:	48 b8 45 72 72 6f 72 	movabs $0x55203a726f727245,%rax
  402b88:	3a 20 55 
  402b8b:	48 ba 6e 61 62 6c 65 	movabs $0x6f7420656c62616e,%rdx
  402b92:	20 74 6f 
  402b95:	49 89 45 00          	mov    %rax,0x0(%r13)
  402b99:	49 89 55 08          	mov    %rdx,0x8(%r13)
  402b9d:	48 b8 20 61 6c 6c 6f 	movabs $0x7461636f6c6c6120,%rax
  402ba4:	63 61 74 
  402ba7:	48 ba 65 20 6d 65 6d 	movabs $0x79726f6d656d2065,%rdx
  402bae:	6f 72 79 
  402bb1:	49 89 45 10          	mov    %rax,0x10(%r13)
  402bb5:	49 89 55 18          	mov    %rdx,0x18(%r13)
  402bb9:	48 b8 20 66 6f 72 20 	movabs $0x636e6520726f6620,%rax
  402bc0:	65 6e 63 
  402bc3:	48 ba 6f 64 65 64 20 	movabs $0x727473206465646f,%rdx
  402bca:	73 74 72 
  402bcd:	49 89 45 20          	mov    %rax,0x20(%r13)
  402bd1:	49 89 55 28          	mov    %rdx,0x28(%r13)
  402bd5:	41 c7 45 30 69 6e 67 	movl   $0x73676e69,0x30(%r13)
  402bdc:	73 
  402bdd:	66 41 c7 45 34 2e 00 	movw   $0x2e,0x34(%r13)
  402be4:	41 be ff ff ff ff    	mov    $0xffffffff,%r14d
  402bea:	e9 dc fe ff ff       	jmpq   402acb <submitr+0x193>
  402bef:	e8 ec e6 ff ff       	callq  4012e0 <__stack_chk_fail@plt>

0000000000402bf4 <init_timeout>:
  402bf4:	f3 0f 1e fa          	endbr64 
  402bf8:	85 ff                	test   %edi,%edi
  402bfa:	74 26                	je     402c22 <init_timeout+0x2e>
  402bfc:	53                   	push   %rbx
  402bfd:	89 fb                	mov    %edi,%ebx
  402bff:	78 1a                	js     402c1b <init_timeout+0x27>
  402c01:	48 8d 35 8f fc ff ff 	lea    -0x371(%rip),%rsi        # 402897 <sigalrm_handler>
  402c08:	bf 0e 00 00 00       	mov    $0xe,%edi
  402c0d:	e8 ee e6 ff ff       	callq  401300 <signal@plt>
  402c12:	89 df                	mov    %ebx,%edi
  402c14:	e8 b7 e6 ff ff       	callq  4012d0 <alarm@plt>
  402c19:	5b                   	pop    %rbx
  402c1a:	c3                   	retq   
  402c1b:	bb 00 00 00 00       	mov    $0x0,%ebx
  402c20:	eb df                	jmp    402c01 <init_timeout+0xd>
  402c22:	c3                   	retq   

0000000000402c23 <init_driver>:
  402c23:	f3 0f 1e fa          	endbr64 
  402c27:	53                   	push   %rbx
  402c28:	48 89 fb             	mov    %rdi,%rbx
  402c2b:	be 01 00 00 00       	mov    $0x1,%esi
  402c30:	bf 0d 00 00 00       	mov    $0xd,%edi
  402c35:	e8 c6 e6 ff ff       	callq  401300 <signal@plt>
  402c3a:	be 01 00 00 00       	mov    $0x1,%esi
  402c3f:	bf 1d 00 00 00       	mov    $0x1d,%edi
  402c44:	e8 b7 e6 ff ff       	callq  401300 <signal@plt>
  402c49:	be 01 00 00 00       	mov    $0x1,%esi
  402c4e:	bf 1d 00 00 00       	mov    $0x1d,%edi
  402c53:	e8 a8 e6 ff ff       	callq  401300 <signal@plt>
  402c58:	66 c7 03 4f 4b       	movw   $0x4b4f,(%rbx)
  402c5d:	c6 43 02 00          	movb   $0x0,0x2(%rbx)
  402c61:	b8 00 00 00 00       	mov    $0x0,%eax
  402c66:	5b                   	pop    %rbx
  402c67:	c3                   	retq   

0000000000402c68 <driver_post>:
  402c68:	f3 0f 1e fa          	endbr64 
  402c6c:	53                   	push   %rbx
  402c6d:	48 89 cb             	mov    %rcx,%rbx
  402c70:	85 d2                	test   %edx,%edx
  402c72:	75 17                	jne    402c8b <driver_post+0x23>
  402c74:	48 85 ff             	test   %rdi,%rdi
  402c77:	74 05                	je     402c7e <driver_post+0x16>
  402c79:	80 3f 00             	cmpb   $0x0,(%rdi)
  402c7c:	75 36                	jne    402cb4 <driver_post+0x4c>
  402c7e:	66 c7 03 4f 4b       	movw   $0x4b4f,(%rbx)
  402c83:	c6 43 02 00          	movb   $0x0,0x2(%rbx)
  402c87:	89 d0                	mov    %edx,%eax
  402c89:	5b                   	pop    %rbx
  402c8a:	c3                   	retq   
  402c8b:	48 89 f2             	mov    %rsi,%rdx
  402c8e:	48 8d 35 b4 0a 00 00 	lea    0xab4(%rip),%rsi        # 403749 <trans_char+0x109>
  402c95:	bf 01 00 00 00       	mov    $0x1,%edi
  402c9a:	b8 00 00 00 00       	mov    $0x0,%eax
  402c9f:	e8 6c e7 ff ff       	callq  401410 <__printf_chk@plt>
  402ca4:	66 c7 03 4f 4b       	movw   $0x4b4f,(%rbx)
  402ca9:	c6 43 02 00          	movb   $0x0,0x2(%rbx)
  402cad:	b8 00 00 00 00       	mov    $0x0,%eax
  402cb2:	eb d5                	jmp    402c89 <driver_post+0x21>
  402cb4:	48 89 ca             	mov    %rcx,%rdx
  402cb7:	e8 7c fc ff ff       	callq  402938 <submitr>
  402cbc:	eb cb                	jmp    402c89 <driver_post+0x21>

0000000000402cbe <check>:
  402cbe:	f3 0f 1e fa          	endbr64 
  402cc2:	89 f8                	mov    %edi,%eax
  402cc4:	c1 e8 1c             	shr    $0x1c,%eax
  402cc7:	74 1d                	je     402ce6 <check+0x28>
  402cc9:	b9 00 00 00 00       	mov    $0x0,%ecx
  402cce:	83 f9 1f             	cmp    $0x1f,%ecx
  402cd1:	7f 0d                	jg     402ce0 <check+0x22>
  402cd3:	89 f8                	mov    %edi,%eax
  402cd5:	d3 e8                	shr    %cl,%eax
  402cd7:	3c 0a                	cmp    $0xa,%al
  402cd9:	74 11                	je     402cec <check+0x2e>
  402cdb:	83 c1 08             	add    $0x8,%ecx
  402cde:	eb ee                	jmp    402cce <check+0x10>
  402ce0:	b8 01 00 00 00       	mov    $0x1,%eax
  402ce5:	c3                   	retq   
  402ce6:	b8 00 00 00 00       	mov    $0x0,%eax
  402ceb:	c3                   	retq   
  402cec:	b8 00 00 00 00       	mov    $0x0,%eax
  402cf1:	c3                   	retq   

0000000000402cf2 <gencookie>:
  402cf2:	f3 0f 1e fa          	endbr64 
  402cf6:	53                   	push   %rbx
  402cf7:	83 c7 01             	add    $0x1,%edi
  402cfa:	e8 21 e7 ff ff       	callq  401420 <srandom@plt>
  402cff:	e8 2c e7 ff ff       	callq  401430 <random@plt>
  402d04:	48 89 c7             	mov    %rax,%rdi
  402d07:	89 c3                	mov    %eax,%ebx
  402d09:	e8 b0 ff ff ff       	callq  402cbe <check>
  402d0e:	85 c0                	test   %eax,%eax
  402d10:	74 ed                	je     402cff <gencookie+0xd>
  402d12:	89 d8                	mov    %ebx,%eax
  402d14:	5b                   	pop    %rbx
  402d15:	c3                   	retq   
  402d16:	66 2e 0f 1f 84 00 00 	nopw   %cs:0x0(%rax,%rax,1)
  402d1d:	00 00 00 

0000000000402d20 <__libc_csu_init>:
  402d20:	f3 0f 1e fa          	endbr64 
  402d24:	41 57                	push   %r15
  402d26:	4c 8d 3d d3 30 00 00 	lea    0x30d3(%rip),%r15        # 405e00 <__frame_dummy_init_array_entry>
  402d2d:	41 56                	push   %r14
  402d2f:	49 89 d6             	mov    %rdx,%r14
  402d32:	41 55                	push   %r13
  402d34:	49 89 f5             	mov    %rsi,%r13
  402d37:	41 54                	push   %r12
  402d39:	41 89 fc             	mov    %edi,%r12d
  402d3c:	55                   	push   %rbp
  402d3d:	48 8d 2d c4 30 00 00 	lea    0x30c4(%rip),%rbp        # 405e08 <__do_global_dtors_aux_fini_array_entry>
  402d44:	53                   	push   %rbx
  402d45:	4c 29 fd             	sub    %r15,%rbp
  402d48:	48 83 ec 08          	sub    $0x8,%rsp
  402d4c:	e8 af e2 ff ff       	callq  401000 <_init>
  402d51:	48 c1 fd 03          	sar    $0x3,%rbp
  402d55:	74 1f                	je     402d76 <__libc_csu_init+0x56>
  402d57:	31 db                	xor    %ebx,%ebx
  402d59:	0f 1f 80 00 00 00 00 	nopl   0x0(%rax)
  402d60:	4c 89 f2             	mov    %r14,%rdx
  402d63:	4c 89 ee             	mov    %r13,%rsi
  402d66:	44 89 e7             	mov    %r12d,%edi
  402d69:	41 ff 14 df          	callq  *(%r15,%rbx,8)
  402d6d:	48 83 c3 01          	add    $0x1,%rbx
  402d71:	48 39 dd             	cmp    %rbx,%rbp
  402d74:	75 ea                	jne    402d60 <__libc_csu_init+0x40>
  402d76:	48 83 c4 08          	add    $0x8,%rsp
  402d7a:	5b                   	pop    %rbx
  402d7b:	5d                   	pop    %rbp
  402d7c:	41 5c                	pop    %r12
  402d7e:	41 5d                	pop    %r13
  402d80:	41 5e                	pop    %r14
  402d82:	41 5f                	pop    %r15
  402d84:	c3                   	retq   
  402d85:	66 66 2e 0f 1f 84 00 	data16 nopw %cs:0x0(%rax,%rax,1)
  402d8c:	00 00 00 00 

0000000000402d90 <__libc_csu_fini>:
  402d90:	f3 0f 1e fa          	endbr64 
  402d94:	c3                   	retq   

Disassembly of section .fini:

0000000000402d98 <_fini>:
  402d98:	f3 0f 1e fa          	endbr64 
  402d9c:	48 83 ec 08          	sub    $0x8,%rsp
  402da0:	48 83 c4 08          	add    $0x8,%rsp
  402da4:	c3                   	retq   
